(dp0
S'std'
p1
F820.4337351377977
sS'n_slices'
p2
L204310L
sS'version'
p3
I1
sS'n_samples'
p4
I800
sS'file_names'
p5
(lp6
S'D:/data/subset0/1.3.6.1.4.1.14519.5.2.1.6279.6001.105756658031515062000744821260.mhd'
p7
aS'D:/data/subset0/1.3.6.1.4.1.14519.5.2.1.6279.6001.108197895896446896160048741492.mhd'
p8
aS'D:/data/subset0/1.3.6.1.4.1.14519.5.2.1.6279.6001.109002525524522225658609808059.mhd'
p9
aS'D:/data/subset0/1.3.6.1.4.1.14519.5.2.1.6279.6001.111172165674661221381920536987.mhd'
p10
aS'D:/data/subset0/1.3.6.1.4.1.14519.5.2.1.6279.6001.122763913896761494371822656720.mhd'
p11
aS'D:/data/subset0/1.3.6.1.4.1.14519.5.2.1.6279.6001.124154461048929153767743874565.mhd'
p12
aS'D:/data/subset0/1.3.6.1.4.1.14519.5.2.1.6279.6001.126121460017257137098781143514.mhd'
p13
aS'D:/data/subset0/1.3.6.1.4.1.14519.5.2.1.6279.6001.126264578931778258890371755354.mhd'
p14
aS'D:/data/subset0/1.3.6.1.4.1.14519.5.2.1.6279.6001.128023902651233986592378348912.mhd'
p15
aS'D:/data/subset0/1.3.6.1.4.1.14519.5.2.1.6279.6001.129055977637338639741695800950.mhd'
p16
aS'D:/data/subset0/1.3.6.1.4.1.14519.5.2.1.6279.6001.130438550890816550994739120843.mhd'
p17
aS'D:/data/subset0/1.3.6.1.4.1.14519.5.2.1.6279.6001.134996872583497382954024478441.mhd'
p18
aS'D:/data/subset0/1.3.6.1.4.1.14519.5.2.1.6279.6001.137763212752154081977261297097.mhd'
p19
aS'D:/data/subset0/1.3.6.1.4.1.14519.5.2.1.6279.6001.138080888843357047811238713686.mhd'
p20
aS'D:/data/subset0/1.3.6.1.4.1.14519.5.2.1.6279.6001.139258777898746693365877042411.mhd'
p21
aS'D:/data/subset0/1.3.6.1.4.1.14519.5.2.1.6279.6001.139713436241461669335487719526.mhd'
p22
aS'D:/data/subset0/1.3.6.1.4.1.14519.5.2.1.6279.6001.141069661700670042960678408762.mhd'
p23
aS'D:/data/subset0/1.3.6.1.4.1.14519.5.2.1.6279.6001.144438612068946916340281098509.mhd'
p24
aS'D:/data/subset0/1.3.6.1.4.1.14519.5.2.1.6279.6001.146429221666426688999739595820.mhd'
p25
aS'D:/data/subset0/1.3.6.1.4.1.14519.5.2.1.6279.6001.154677396354641150280013275227.mhd'
p26
aS'D:/data/subset0/1.3.6.1.4.1.14519.5.2.1.6279.6001.187451715205085403623595258748.mhd'
p27
aS'D:/data/subset0/1.3.6.1.4.1.14519.5.2.1.6279.6001.188209889686363159853715266493.mhd'
p28
aS'D:/data/subset0/1.3.6.1.4.1.14519.5.2.1.6279.6001.188376349804761988217597754952.mhd'
p29
aS'D:/data/subset0/1.3.6.1.4.1.14519.5.2.1.6279.6001.194440094986948071643661798326.mhd'
p30
aS'D:/data/subset0/1.3.6.1.4.1.14519.5.2.1.6279.6001.194465340552956447447896167830.mhd'
p31
aS'D:/data/subset0/1.3.6.1.4.1.14519.5.2.1.6279.6001.202811684116768680758082619196.mhd'
p32
aS'D:/data/subset0/1.3.6.1.4.1.14519.5.2.1.6279.6001.210837812047373739447725050963.mhd'
p33
aS'D:/data/subset0/1.3.6.1.4.1.14519.5.2.1.6279.6001.213140617640021803112060161074.mhd'
p34
aS'D:/data/subset0/1.3.6.1.4.1.14519.5.2.1.6279.6001.216882370221919561230873289517.mhd'
p35
aS'D:/data/subset0/1.3.6.1.4.1.14519.5.2.1.6279.6001.219087313261026510628926082729.mhd'
p36
aS'D:/data/subset0/1.3.6.1.4.1.14519.5.2.1.6279.6001.219909753224298157409438012179.mhd'
p37
aS'D:/data/subset0/1.3.6.1.4.1.14519.5.2.1.6279.6001.227962600322799211676960828223.mhd'
p38
aS'D:/data/subset0/1.3.6.1.4.1.14519.5.2.1.6279.6001.231645134739451754302647733304.mhd'
p39
aS'D:/data/subset0/1.3.6.1.4.1.14519.5.2.1.6279.6001.238522526736091851696274044574.mhd'
p40
aS'D:/data/subset0/1.3.6.1.4.1.14519.5.2.1.6279.6001.241570579760883349458693655367.mhd'
p41
aS'D:/data/subset0/1.3.6.1.4.1.14519.5.2.1.6279.6001.249530219848512542668813996730.mhd'
p42
aS'D:/data/subset0/1.3.6.1.4.1.14519.5.2.1.6279.6001.250438451287314206124484591986.mhd'
p43
aS'D:/data/subset0/1.3.6.1.4.1.14519.5.2.1.6279.6001.250863365157630276148828903732.mhd'
p44
aS'D:/data/subset0/1.3.6.1.4.1.14519.5.2.1.6279.6001.269689294231892620436462818860.mhd'
p45
aS'D:/data/subset0/1.3.6.1.4.1.14519.5.2.1.6279.6001.272042302501586336192628818865.mhd'
p46
aS'D:/data/subset0/1.3.6.1.4.1.14519.5.2.1.6279.6001.277445975068759205899107114231.mhd'
p47
aS'D:/data/subset0/1.3.6.1.4.1.14519.5.2.1.6279.6001.278660284797073139172446973682.mhd'
p48
aS'D:/data/subset0/1.3.6.1.4.1.14519.5.2.1.6279.6001.280972147860943609388015648430.mhd'
p49
aS'D:/data/subset0/1.3.6.1.4.1.14519.5.2.1.6279.6001.281489753704424911132261151767.mhd'
p50
aS'D:/data/subset0/1.3.6.1.4.1.14519.5.2.1.6279.6001.293757615532132808762625441831.mhd'
p51
aS'D:/data/subset0/1.3.6.1.4.1.14519.5.2.1.6279.6001.294188507421106424248264912111.mhd'
p52
aS'D:/data/subset0/1.3.6.1.4.1.14519.5.2.1.6279.6001.295298571102631191572192562523.mhd'
p53
aS'D:/data/subset0/1.3.6.1.4.1.14519.5.2.1.6279.6001.295420274214095686326263147663.mhd'
p54
aS'D:/data/subset0/1.3.6.1.4.1.14519.5.2.1.6279.6001.302134342469412607966016057827.mhd'
p55
aS'D:/data/subset0/1.3.6.1.4.1.14519.5.2.1.6279.6001.303421828981831854739626597495.mhd'
p56
aS'D:/data/subset0/1.3.6.1.4.1.14519.5.2.1.6279.6001.305858704835252413616501469037.mhd'
p57
aS'D:/data/subset0/1.3.6.1.4.1.14519.5.2.1.6279.6001.310548927038333190233889983845.mhd'
p58
aS'D:/data/subset0/1.3.6.1.4.1.14519.5.2.1.6279.6001.310626494937915759224334597176.mhd'
p59
aS'D:/data/subset0/1.3.6.1.4.1.14519.5.2.1.6279.6001.311981398931043315779172047718.mhd'
p60
aS'D:/data/subset0/1.3.6.1.4.1.14519.5.2.1.6279.6001.313334055029671473836954456733.mhd'
p61
aS'D:/data/subset0/1.3.6.1.4.1.14519.5.2.1.6279.6001.313605260055394498989743099991.mhd'
p62
aS'D:/data/subset0/1.3.6.1.4.1.14519.5.2.1.6279.6001.313835996725364342034830119490.mhd'
p63
aS'D:/data/subset0/1.3.6.1.4.1.14519.5.2.1.6279.6001.317087518531899043292346860596.mhd'
p64
aS'D:/data/subset0/1.3.6.1.4.1.14519.5.2.1.6279.6001.323302986710576400812869264321.mhd'
p65
aS'D:/data/subset0/1.3.6.1.4.1.14519.5.2.1.6279.6001.323859712968543712594665815359.mhd'
p66
aS'D:/data/subset0/1.3.6.1.4.1.14519.5.2.1.6279.6001.332453873575389860371315979768.mhd'
p67
aS'D:/data/subset0/1.3.6.1.4.1.14519.5.2.1.6279.6001.333145094436144085379032922488.mhd'
p68
aS'D:/data/subset0/1.3.6.1.4.1.14519.5.2.1.6279.6001.334517907433161353885866806005.mhd'
p69
aS'D:/data/subset0/1.3.6.1.4.1.14519.5.2.1.6279.6001.395623571499047043765181005112.mhd'
p70
aS'D:/data/subset0/1.3.6.1.4.1.14519.5.2.1.6279.6001.397062004302272014259317520874.mhd'
p71
aS'D:/data/subset0/1.3.6.1.4.1.14519.5.2.1.6279.6001.404364125369979066736354549484.mhd'
p72
aS'D:/data/subset0/1.3.6.1.4.1.14519.5.2.1.6279.6001.417815314896088956784723476543.mhd'
p73
aS'D:/data/subset0/1.3.6.1.4.1.14519.5.2.1.6279.6001.430109407146633213496148200410.mhd'
p74
aS'D:/data/subset0/1.3.6.1.4.1.14519.5.2.1.6279.6001.450501966058662668272378865145.mhd'
p75
aS'D:/data/subset0/1.3.6.1.4.1.14519.5.2.1.6279.6001.511347030803753100045216493273.mhd'
p76
aS'D:/data/subset0/1.3.6.1.4.1.14519.5.2.1.6279.6001.525937963993475482158828421281.mhd'
p77
aS'D:/data/subset0/1.3.6.1.4.1.14519.5.2.1.6279.6001.534006575256943390479252771547.mhd'
p78
aS'D:/data/subset0/1.3.6.1.4.1.14519.5.2.1.6279.6001.534083630500464995109143618896.mhd'
p79
aS'D:/data/subset0/1.3.6.1.4.1.14519.5.2.1.6279.6001.564534197011295112247542153557.mhd'
p80
aS'D:/data/subset0/1.3.6.1.4.1.14519.5.2.1.6279.6001.566816709786169715745131047975.mhd'
p81
aS'D:/data/subset0/1.3.6.1.4.1.14519.5.2.1.6279.6001.621916089407825046337959219998.mhd'
p82
aS'D:/data/subset0/1.3.6.1.4.1.14519.5.2.1.6279.6001.640729228179368154416184318668.mhd'
p83
aS'D:/data/subset0/1.3.6.1.4.1.14519.5.2.1.6279.6001.657775098760536289051744981056.mhd'
p84
aS'D:/data/subset0/1.3.6.1.4.1.14519.5.2.1.6279.6001.716498695101447665580610403574.mhd'
p85
aS'D:/data/subset0/1.3.6.1.4.1.14519.5.2.1.6279.6001.724251104254976962355686318345.mhd'
p86
aS'D:/data/subset0/1.3.6.1.4.1.14519.5.2.1.6279.6001.752756872840730509471096155114.mhd'
p87
aS'D:/data/subset0/1.3.6.1.4.1.14519.5.2.1.6279.6001.805925269324902055566754756843.mhd'
p88
aS'D:/data/subset0/1.3.6.1.4.1.14519.5.2.1.6279.6001.826812708000318290301835871780.mhd'
p89
aS'D:/data/subset0/1.3.6.1.4.1.14519.5.2.1.6279.6001.832260670372728970918746541371.mhd'
p90
aS'D:/data/subset0/1.3.6.1.4.1.14519.5.2.1.6279.6001.868211851413924881662621747734.mhd'
p91
aS'D:/data/subset0/1.3.6.1.4.1.14519.5.2.1.6279.6001.898642529028521482602829374444.mhd'
p92
aS'D:/data/subset0/1.3.6.1.4.1.14519.5.2.1.6279.6001.905371958588660410240398317235.mhd'
p93
aS'D:/data/subset0/1.3.6.1.4.1.14519.5.2.1.6279.6001.975254950136384517744116790879.mhd'
p94
aS'D:/data/subset0/1.3.6.1.4.1.14519.5.2.1.6279.6001.979083010707182900091062408058.mhd'
p95
aS'D:/data/subset1/1.3.6.1.4.1.14519.5.2.1.6279.6001.100684836163890911914061745866.mhd'
p96
aS'D:/data/subset1/1.3.6.1.4.1.14519.5.2.1.6279.6001.104562737760173137525888934217.mhd'
p97
aS'D:/data/subset1/1.3.6.1.4.1.14519.5.2.1.6279.6001.106719103982792863757268101375.mhd'
p98
aS'D:/data/subset1/1.3.6.1.4.1.14519.5.2.1.6279.6001.108231420525711026834210228428.mhd'
p99
aS'D:/data/subset1/1.3.6.1.4.1.14519.5.2.1.6279.6001.111017101339429664883879536171.mhd'
p100
aS'D:/data/subset1/1.3.6.1.4.1.14519.5.2.1.6279.6001.113697708991260454310623082679.mhd'
p101
aS'D:/data/subset1/1.3.6.1.4.1.14519.5.2.1.6279.6001.114218724025049818743426522343.mhd'
p102
aS'D:/data/subset1/1.3.6.1.4.1.14519.5.2.1.6279.6001.121824995088859376862458155637.mhd'
p103
aS'D:/data/subset1/1.3.6.1.4.1.14519.5.2.1.6279.6001.128059192202504367870633619224.mhd'
p104
aS'D:/data/subset1/1.3.6.1.4.1.14519.5.2.1.6279.6001.128881800399702510818644205032.mhd'
p105
aS'D:/data/subset1/1.3.6.1.4.1.14519.5.2.1.6279.6001.134370886216012873213579659366.mhd'
p106
aS'D:/data/subset1/1.3.6.1.4.1.14519.5.2.1.6279.6001.139595277234735528205899724196.mhd'
p107
aS'D:/data/subset1/1.3.6.1.4.1.14519.5.2.1.6279.6001.140527383975300992150799777603.mhd'
p108
aS'D:/data/subset1/1.3.6.1.4.1.14519.5.2.1.6279.6001.144943344795414353192059796098.mhd'
p109
aS'D:/data/subset1/1.3.6.1.4.1.14519.5.2.1.6279.6001.145759169833745025756371695397.mhd'
p110
aS'D:/data/subset1/1.3.6.1.4.1.14519.5.2.1.6279.6001.146603910507557786636779705509.mhd'
p111
aS'D:/data/subset1/1.3.6.1.4.1.14519.5.2.1.6279.6001.152684536713461901635595118048.mhd'
p112
aS'D:/data/subset1/1.3.6.1.4.1.14519.5.2.1.6279.6001.161002239822118346732951898613.mhd'
p113
aS'D:/data/subset1/1.3.6.1.4.1.14519.5.2.1.6279.6001.161073793312426102774780216551.mhd'
p114
aS'D:/data/subset1/1.3.6.1.4.1.14519.5.2.1.6279.6001.162207236104936931957809623059.mhd'
p115
aS'D:/data/subset1/1.3.6.1.4.1.14519.5.2.1.6279.6001.162718361851587451505896742103.mhd'
p116
aS'D:/data/subset1/1.3.6.1.4.1.14519.5.2.1.6279.6001.162901839201654862079549658100.mhd'
p117
aS'D:/data/subset1/1.3.6.1.4.1.14519.5.2.1.6279.6001.163994693532965040247348251579.mhd'
p118
aS'D:/data/subset1/1.3.6.1.4.1.14519.5.2.1.6279.6001.168037818448885856452592057286.mhd'
p119
aS'D:/data/subset1/1.3.6.1.4.1.14519.5.2.1.6279.6001.168605638657404145360275453085.mhd'
p120
aS'D:/data/subset1/1.3.6.1.4.1.14519.5.2.1.6279.6001.169128136262002764211589185953.mhd'
p121
aS'D:/data/subset1/1.3.6.1.4.1.14519.5.2.1.6279.6001.171919524048654494439256263785.mhd'
p122
aS'D:/data/subset1/1.3.6.1.4.1.14519.5.2.1.6279.6001.173106154739244262091404659845.mhd'
p123
aS'D:/data/subset1/1.3.6.1.4.1.14519.5.2.1.6279.6001.179049373636438705059720603192.mhd'
p124
aS'D:/data/subset1/1.3.6.1.4.1.14519.5.2.1.6279.6001.179162671133894061547290922949.mhd'
p125
aS'D:/data/subset1/1.3.6.1.4.1.14519.5.2.1.6279.6001.183184435049555024219115904825.mhd'
p126
aS'D:/data/subset1/1.3.6.1.4.1.14519.5.2.1.6279.6001.183843376225716802567192412456.mhd'
p127
aS'D:/data/subset1/1.3.6.1.4.1.14519.5.2.1.6279.6001.184019785706727365023450012318.mhd'
p128
aS'D:/data/subset1/1.3.6.1.4.1.14519.5.2.1.6279.6001.186021279664749879526003668137.mhd'
p129
aS'D:/data/subset1/1.3.6.1.4.1.14519.5.2.1.6279.6001.193408384740507320589857096592.mhd'
p130
aS'D:/data/subset1/1.3.6.1.4.1.14519.5.2.1.6279.6001.193808128386712859512130599234.mhd'
p131
aS'D:/data/subset1/1.3.6.1.4.1.14519.5.2.1.6279.6001.197987940182806628828566429132.mhd'
p132
aS'D:/data/subset1/1.3.6.1.4.1.14519.5.2.1.6279.6001.200558451375970945040979397866.mhd'
p133
aS'D:/data/subset1/1.3.6.1.4.1.14519.5.2.1.6279.6001.206539885154775002929031534291.mhd'
p134
aS'D:/data/subset1/1.3.6.1.4.1.14519.5.2.1.6279.6001.208737629504245244513001631764.mhd'
p135
aS'D:/data/subset1/1.3.6.1.4.1.14519.5.2.1.6279.6001.216652640878960522552873394709.mhd'
p136
aS'D:/data/subset1/1.3.6.1.4.1.14519.5.2.1.6279.6001.222087811960706096424718056430.mhd'
p137
aS'D:/data/subset1/1.3.6.1.4.1.14519.5.2.1.6279.6001.226456162308124493341905600418.mhd'
p138
aS'D:/data/subset1/1.3.6.1.4.1.14519.5.2.1.6279.6001.231002159523969307155990628066.mhd'
p139
aS'D:/data/subset1/1.3.6.1.4.1.14519.5.2.1.6279.6001.231834776365874788440767645596.mhd'
p140
aS'D:/data/subset1/1.3.6.1.4.1.14519.5.2.1.6279.6001.243094273518213382155770295147.mhd'
p141
aS'D:/data/subset1/1.3.6.1.4.1.14519.5.2.1.6279.6001.247769845138587733933485039556.mhd'
p142
aS'D:/data/subset1/1.3.6.1.4.1.14519.5.2.1.6279.6001.250397690690072950000431855143.mhd'
p143
aS'D:/data/subset1/1.3.6.1.4.1.14519.5.2.1.6279.6001.259018373683540453277752706262.mhd'
p144
aS'D:/data/subset1/1.3.6.1.4.1.14519.5.2.1.6279.6001.259543921154154401875872845498.mhd'
p145
aS'D:/data/subset1/1.3.6.1.4.1.14519.5.2.1.6279.6001.270390050141765094612147226290.mhd'
p146
aS'D:/data/subset1/1.3.6.1.4.1.14519.5.2.1.6279.6001.272961322147784625028175033640.mhd'
p147
aS'D:/data/subset1/1.3.6.1.4.1.14519.5.2.1.6279.6001.275766318636944297772360944907.mhd'
p148
aS'D:/data/subset1/1.3.6.1.4.1.14519.5.2.1.6279.6001.282512043257574309474415322775.mhd'
p149
aS'D:/data/subset1/1.3.6.1.4.1.14519.5.2.1.6279.6001.286647622786041008124419915089.mhd'
p150
aS'D:/data/subset1/1.3.6.1.4.1.14519.5.2.1.6279.6001.287966244644280690737019247886.mhd'
p151
aS'D:/data/subset1/1.3.6.1.4.1.14519.5.2.1.6279.6001.300271604576987336866436407488.mhd'
p152
aS'D:/data/subset1/1.3.6.1.4.1.14519.5.2.1.6279.6001.306948744223170422945185006551.mhd'
p153
aS'D:/data/subset1/1.3.6.1.4.1.14519.5.2.1.6279.6001.308183340111270052562662456038.mhd'
p154
aS'D:/data/subset1/1.3.6.1.4.1.14519.5.2.1.6279.6001.309672797925724868457151381131.mhd'
p155
aS'D:/data/subset1/1.3.6.1.4.1.14519.5.2.1.6279.6001.310395752124284049604069960014.mhd'
p156
aS'D:/data/subset1/1.3.6.1.4.1.14519.5.2.1.6279.6001.314789075871001236641548593165.mhd'
p157
aS'D:/data/subset1/1.3.6.1.4.1.14519.5.2.1.6279.6001.315214756157389122376518747372.mhd'
p158
aS'D:/data/subset1/1.3.6.1.4.1.14519.5.2.1.6279.6001.325164338773720548739146851679.mhd'
p159
aS'D:/data/subset1/1.3.6.1.4.1.14519.5.2.1.6279.6001.326057189095429101398977448288.mhd'
p160
aS'D:/data/subset1/1.3.6.1.4.1.14519.5.2.1.6279.6001.331211682377519763144559212009.mhd'
p161
aS'D:/data/subset1/1.3.6.1.4.1.14519.5.2.1.6279.6001.334105754605642100456249422350.mhd'
p162
aS'D:/data/subset1/1.3.6.1.4.1.14519.5.2.1.6279.6001.335866409407244673864352309754.mhd'
p163
aS'D:/data/subset1/1.3.6.1.4.1.14519.5.2.1.6279.6001.336894364358709782463716339027.mhd'
p164
aS'D:/data/subset1/1.3.6.1.4.1.14519.5.2.1.6279.6001.458525794434429386945463560826.mhd'
p165
aS'D:/data/subset1/1.3.6.1.4.1.14519.5.2.1.6279.6001.479402560265137632920333093071.mhd'
p166
aS'D:/data/subset1/1.3.6.1.4.1.14519.5.2.1.6279.6001.503980049263254396021509831276.mhd'
p167
aS'D:/data/subset1/1.3.6.1.4.1.14519.5.2.1.6279.6001.561458563853929400124470098603.mhd'
p168
aS'D:/data/subset1/1.3.6.1.4.1.14519.5.2.1.6279.6001.616033753016904899083676284739.mhd'
p169
aS'D:/data/subset1/1.3.6.1.4.1.14519.5.2.1.6279.6001.655242448149322898770987310561.mhd'
p170
aS'D:/data/subset1/1.3.6.1.4.1.14519.5.2.1.6279.6001.663019255629770796363333877035.mhd'
p171
aS'D:/data/subset1/1.3.6.1.4.1.14519.5.2.1.6279.6001.674809958213117379592437424616.mhd'
p172
aS'D:/data/subset1/1.3.6.1.4.1.14519.5.2.1.6279.6001.690929968028676628605553365896.mhd'
p173
aS'D:/data/subset1/1.3.6.1.4.1.14519.5.2.1.6279.6001.756684168227383088294595834066.mhd'
p174
aS'D:/data/subset1/1.3.6.1.4.1.14519.5.2.1.6279.6001.768276876111112560631432843476.mhd'
p175
aS'D:/data/subset1/1.3.6.1.4.1.14519.5.2.1.6279.6001.801945620899034889998809817499.mhd'
p176
aS'D:/data/subset1/1.3.6.1.4.1.14519.5.2.1.6279.6001.802595762867498341201607992711.mhd'
p177
aS'D:/data/subset1/1.3.6.1.4.1.14519.5.2.1.6279.6001.861997885565255340442123234170.mhd'
p178
aS'D:/data/subset1/1.3.6.1.4.1.14519.5.2.1.6279.6001.888291896309937415860209787179.mhd'
p179
aS'D:/data/subset1/1.3.6.1.4.1.14519.5.2.1.6279.6001.892375496445736188832556446335.mhd'
p180
aS'D:/data/subset1/1.3.6.1.4.1.14519.5.2.1.6279.6001.910607280658963002048724648683.mhd'
p181
aS'D:/data/subset1/1.3.6.1.4.1.14519.5.2.1.6279.6001.935683764293840351008008793409.mhd'
p182
aS'D:/data/subset1/1.3.6.1.4.1.14519.5.2.1.6279.6001.952265563663939823135367733681.mhd'
p183
aS'D:/data/subset1/1.3.6.1.4.1.14519.5.2.1.6279.6001.970264865033574190975654369557.mhd'
p184
aS'D:/data/subset2/1.3.6.1.4.1.14519.5.2.1.6279.6001.100621383016233746780170740405.mhd'
p185
aS'D:/data/subset2/1.3.6.1.4.1.14519.5.2.1.6279.6001.102133688497886810253331438797.mhd'
p186
aS'D:/data/subset2/1.3.6.1.4.1.14519.5.2.1.6279.6001.113586291551175790743673929831.mhd'
p187
aS'D:/data/subset2/1.3.6.1.4.1.14519.5.2.1.6279.6001.116492508532884962903000261147.mhd'
p188
aS'D:/data/subset2/1.3.6.1.4.1.14519.5.2.1.6279.6001.117383608379722740629083782428.mhd'
p189
aS'D:/data/subset2/1.3.6.1.4.1.14519.5.2.1.6279.6001.121993590721161347818774929286.mhd'
p190
aS'D:/data/subset2/1.3.6.1.4.1.14519.5.2.1.6279.6001.124663713663969377020085460568.mhd'
p191
aS'D:/data/subset2/1.3.6.1.4.1.14519.5.2.1.6279.6001.126704785377921920210612476953.mhd'
p192
aS'D:/data/subset2/1.3.6.1.4.1.14519.5.2.1.6279.6001.133378195429627807109985347209.mhd'
p193
aS'D:/data/subset2/1.3.6.1.4.1.14519.5.2.1.6279.6001.137375498893536422914241295628.mhd'
p194
aS'D:/data/subset2/1.3.6.1.4.1.14519.5.2.1.6279.6001.139444426690868429919252698606.mhd'
p195
aS'D:/data/subset2/1.3.6.1.4.1.14519.5.2.1.6279.6001.142485715518010940961688015191.mhd'
p196
aS'D:/data/subset2/1.3.6.1.4.1.14519.5.2.1.6279.6001.143412474064515942785157561636.mhd'
p197
aS'D:/data/subset2/1.3.6.1.4.1.14519.5.2.1.6279.6001.144883090372691745980459537053.mhd'
p198
aS'D:/data/subset2/1.3.6.1.4.1.14519.5.2.1.6279.6001.147250707071097813243473865421.mhd'
p199
aS'D:/data/subset2/1.3.6.1.4.1.14519.5.2.1.6279.6001.153536305742006952753134773630.mhd'
p200
aS'D:/data/subset2/1.3.6.1.4.1.14519.5.2.1.6279.6001.156322145453198768801776721493.mhd'
p201
aS'D:/data/subset2/1.3.6.1.4.1.14519.5.2.1.6279.6001.156579001330474859527530187095.mhd'
p202
aS'D:/data/subset2/1.3.6.1.4.1.14519.5.2.1.6279.6001.159521777966998275980367008904.mhd'
p203
aS'D:/data/subset2/1.3.6.1.4.1.14519.5.2.1.6279.6001.159996104466052855396410079250.mhd'
p204
aS'D:/data/subset2/1.3.6.1.4.1.14519.5.2.1.6279.6001.163901773171373940247829492387.mhd'
p205
aS'D:/data/subset2/1.3.6.1.4.1.14519.5.2.1.6279.6001.172845185165807139298420209778.mhd'
p206
aS'D:/data/subset2/1.3.6.1.4.1.14519.5.2.1.6279.6001.176362912420491262783064585333.mhd'
p207
aS'D:/data/subset2/1.3.6.1.4.1.14519.5.2.1.6279.6001.183924380327950237519832859527.mhd'
p208
aS'D:/data/subset2/1.3.6.1.4.1.14519.5.2.1.6279.6001.184412674007117333405073397832.mhd'
p209
aS'D:/data/subset2/1.3.6.1.4.1.14519.5.2.1.6279.6001.187108608022306504546286626125.mhd'
p210
aS'D:/data/subset2/1.3.6.1.4.1.14519.5.2.1.6279.6001.187966156856911682643615997798.mhd'
p211
aS'D:/data/subset2/1.3.6.1.4.1.14519.5.2.1.6279.6001.190298296009658115773239776160.mhd'
p212
aS'D:/data/subset2/1.3.6.1.4.1.14519.5.2.1.6279.6001.191301539558980174217770205256.mhd'
p213
aS'D:/data/subset2/1.3.6.1.4.1.14519.5.2.1.6279.6001.192256506776434538421891524301.mhd'
p214
aS'D:/data/subset2/1.3.6.1.4.1.14519.5.2.1.6279.6001.199171741859530285887752432478.mhd'
p215
aS'D:/data/subset2/1.3.6.1.4.1.14519.5.2.1.6279.6001.199220738144407033276946096708.mhd'
p216
aS'D:/data/subset2/1.3.6.1.4.1.14519.5.2.1.6279.6001.199975006921901879512837687266.mhd'
p217
aS'D:/data/subset2/1.3.6.1.4.1.14519.5.2.1.6279.6001.212346425055214308006918165305.mhd'
p218
aS'D:/data/subset2/1.3.6.1.4.1.14519.5.2.1.6279.6001.213022585153512920098588556742.mhd'
p219
aS'D:/data/subset2/1.3.6.1.4.1.14519.5.2.1.6279.6001.216526102138308489357443843021.mhd'
p220
aS'D:/data/subset2/1.3.6.1.4.1.14519.5.2.1.6279.6001.217589936421986638139451480826.mhd'
p221
aS'D:/data/subset2/1.3.6.1.4.1.14519.5.2.1.6279.6001.217697417596902141600884006982.mhd'
p222
aS'D:/data/subset2/1.3.6.1.4.1.14519.5.2.1.6279.6001.217955041973656886482758642958.mhd'
p223
aS'D:/data/subset2/1.3.6.1.4.1.14519.5.2.1.6279.6001.220205300714852483483213840572.mhd'
p224
aS'D:/data/subset2/1.3.6.1.4.1.14519.5.2.1.6279.6001.221945191226273284587353530424.mhd'
p225
aS'D:/data/subset2/1.3.6.1.4.1.14519.5.2.1.6279.6001.223098610241551815995595311693.mhd'
p226
aS'D:/data/subset2/1.3.6.1.4.1.14519.5.2.1.6279.6001.225154811831720426832024114593.mhd'
p227
aS'D:/data/subset2/1.3.6.1.4.1.14519.5.2.1.6279.6001.226383054119800793308721198594.mhd'
p228
aS'D:/data/subset2/1.3.6.1.4.1.14519.5.2.1.6279.6001.227796349777753378641347819780.mhd'
p229
aS'D:/data/subset2/1.3.6.1.4.1.14519.5.2.1.6279.6001.227885601428639043345478571594.mhd'
p230
aS'D:/data/subset2/1.3.6.1.4.1.14519.5.2.1.6279.6001.230078008964732806419498631442.mhd'
p231
aS'D:/data/subset2/1.3.6.1.4.1.14519.5.2.1.6279.6001.232071262560365924176679652948.mhd'
p232
aS'D:/data/subset2/1.3.6.1.4.1.14519.5.2.1.6279.6001.235364978775280910367690540811.mhd'
p233
aS'D:/data/subset2/1.3.6.1.4.1.14519.5.2.1.6279.6001.240969450540588211676803094518.mhd'
p234
aS'D:/data/subset2/1.3.6.1.4.1.14519.5.2.1.6279.6001.252634638822000832774167856951.mhd'
p235
aS'D:/data/subset2/1.3.6.1.4.1.14519.5.2.1.6279.6001.253283426904813468115158375647.mhd'
p236
aS'D:/data/subset2/1.3.6.1.4.1.14519.5.2.1.6279.6001.253322967203074795232627653819.mhd'
p237
aS'D:/data/subset2/1.3.6.1.4.1.14519.5.2.1.6279.6001.259227883564429312164962953756.mhd'
p238
aS'D:/data/subset2/1.3.6.1.4.1.14519.5.2.1.6279.6001.265133389948279331857097127422.mhd'
p239
aS'D:/data/subset2/1.3.6.1.4.1.14519.5.2.1.6279.6001.265453131727473342790950829556.mhd'
p240
aS'D:/data/subset2/1.3.6.1.4.1.14519.5.2.1.6279.6001.267519732763035023633235877753.mhd'
p241
aS'D:/data/subset2/1.3.6.1.4.1.14519.5.2.1.6279.6001.267957701183569638795986183786.mhd'
p242
aS'D:/data/subset2/1.3.6.1.4.1.14519.5.2.1.6279.6001.270152671889301412052226973069.mhd'
p243
aS'D:/data/subset2/1.3.6.1.4.1.14519.5.2.1.6279.6001.272259794130271010519952623746.mhd'
p244
aS'D:/data/subset2/1.3.6.1.4.1.14519.5.2.1.6279.6001.280072876841890439628529365478.mhd'
p245
aS'D:/data/subset2/1.3.6.1.4.1.14519.5.2.1.6279.6001.281967919138248195763602360723.mhd'
p246
aS'D:/data/subset2/1.3.6.1.4.1.14519.5.2.1.6279.6001.283569726884265181140892667131.mhd'
p247
aS'D:/data/subset2/1.3.6.1.4.1.14519.5.2.1.6279.6001.283733738239331719775105586296.mhd'
p248
aS'D:/data/subset2/1.3.6.1.4.1.14519.5.2.1.6279.6001.296863826932699509516219450076.mhd'
p249
aS'D:/data/subset2/1.3.6.1.4.1.14519.5.2.1.6279.6001.299767339686526858593516834230.mhd'
p250
aS'D:/data/subset2/1.3.6.1.4.1.14519.5.2.1.6279.6001.302557165094691896097534021075.mhd'
p251
aS'D:/data/subset2/1.3.6.1.4.1.14519.5.2.1.6279.6001.306788423710427765311352901943.mhd'
p252
aS'D:/data/subset2/1.3.6.1.4.1.14519.5.2.1.6279.6001.311236942972970815890902714604.mhd'
p253
aS'D:/data/subset2/1.3.6.1.4.1.14519.5.2.1.6279.6001.323753921818102744511069914832.mhd'
p254
aS'D:/data/subset2/1.3.6.1.4.1.14519.5.2.1.6279.6001.325580698241281352835338693869.mhd'
p255
aS'D:/data/subset2/1.3.6.1.4.1.14519.5.2.1.6279.6001.443400977949406454649939526179.mhd'
p256
aS'D:/data/subset2/1.3.6.1.4.1.14519.5.2.1.6279.6001.461155505515403114280165935891.mhd'
p257
aS'D:/data/subset2/1.3.6.1.4.1.14519.5.2.1.6279.6001.466284753932369813717081722101.mhd'
p258
aS'D:/data/subset2/1.3.6.1.4.1.14519.5.2.1.6279.6001.470912100568074901744259213968.mhd'
p259
aS'D:/data/subset2/1.3.6.1.4.1.14519.5.2.1.6279.6001.504324996863016748259361352296.mhd'
p260
aS'D:/data/subset2/1.3.6.1.4.1.14519.5.2.1.6279.6001.557875302364105947813979213632.mhd'
p261
aS'D:/data/subset2/1.3.6.1.4.1.14519.5.2.1.6279.6001.624425075947752229712087113746.mhd'
p262
aS'D:/data/subset2/1.3.6.1.4.1.14519.5.2.1.6279.6001.669518152156802508672627785405.mhd'
p263
aS'D:/data/subset2/1.3.6.1.4.1.14519.5.2.1.6279.6001.692598144815688523679745963696.mhd'
p264
aS'D:/data/subset2/1.3.6.1.4.1.14519.5.2.1.6279.6001.707218743153927597786179232739.mhd'
p265
aS'D:/data/subset2/1.3.6.1.4.1.14519.5.2.1.6279.6001.743969234977916254223533321294.mhd'
p266
aS'D:/data/subset2/1.3.6.1.4.1.14519.5.2.1.6279.6001.776429308535398795601496131524.mhd'
p267
aS'D:/data/subset2/1.3.6.1.4.1.14519.5.2.1.6279.6001.803808126682275425758092691689.mhd'
p268
aS'D:/data/subset2/1.3.6.1.4.1.14519.5.2.1.6279.6001.885292267869246639232975687131.mhd'
p269
aS'D:/data/subset2/1.3.6.1.4.1.14519.5.2.1.6279.6001.922852847124879997825997808179.mhd'
p270
aS'D:/data/subset2/1.3.6.1.4.1.14519.5.2.1.6279.6001.939152384493874708850321969356.mhd'
p271
aS'D:/data/subset2/1.3.6.1.4.1.14519.5.2.1.6279.6001.943403138251347598519939390311.mhd'
p272
aS'D:/data/subset2/1.3.6.1.4.1.14519.5.2.1.6279.6001.964952370561266624992539111877.mhd'
p273
aS'D:/data/subset3/1.3.6.1.4.1.14519.5.2.1.6279.6001.100620385482151095585000946543.mhd'
p274
aS'D:/data/subset3/1.3.6.1.4.1.14519.5.2.1.6279.6001.100953483028192176989979435275.mhd'
p275
aS'D:/data/subset3/1.3.6.1.4.1.14519.5.2.1.6279.6001.106164978370116976238911317774.mhd'
p276
aS'D:/data/subset3/1.3.6.1.4.1.14519.5.2.1.6279.6001.121391737347333465796214915391.mhd'
p277
aS'D:/data/subset3/1.3.6.1.4.1.14519.5.2.1.6279.6001.123697637451437522065941162930.mhd'
p278
aS'D:/data/subset3/1.3.6.1.4.1.14519.5.2.1.6279.6001.125356649712550043958727288500.mhd'
p279
aS'D:/data/subset3/1.3.6.1.4.1.14519.5.2.1.6279.6001.126631670596873065041988320084.mhd'
p280
aS'D:/data/subset3/1.3.6.1.4.1.14519.5.2.1.6279.6001.127965161564033605177803085629.mhd'
p281
aS'D:/data/subset3/1.3.6.1.4.1.14519.5.2.1.6279.6001.135657246677982059395844827629.mhd'
p282
aS'D:/data/subset3/1.3.6.1.4.1.14519.5.2.1.6279.6001.145474881373882284343459153872.mhd'
p283
aS'D:/data/subset3/1.3.6.1.4.1.14519.5.2.1.6279.6001.148447286464082095534651426689.mhd'
p284
aS'D:/data/subset3/1.3.6.1.4.1.14519.5.2.1.6279.6001.149463915556499304732434215056.mhd'
p285
aS'D:/data/subset3/1.3.6.1.4.1.14519.5.2.1.6279.6001.154703816225841204080664115280.mhd'
p286
aS'D:/data/subset3/1.3.6.1.4.1.14519.5.2.1.6279.6001.160216916075817913953530562493.mhd'
p287
aS'D:/data/subset3/1.3.6.1.4.1.14519.5.2.1.6279.6001.162845309248822193437735868939.mhd'
p288
aS'D:/data/subset3/1.3.6.1.4.1.14519.5.2.1.6279.6001.167919147233131417984739058859.mhd'
p289
aS'D:/data/subset3/1.3.6.1.4.1.14519.5.2.1.6279.6001.171667800241622018839592854574.mhd'
p290
aS'D:/data/subset3/1.3.6.1.4.1.14519.5.2.1.6279.6001.172573195301625265149778785969.mhd'
p291
aS'D:/data/subset3/1.3.6.1.4.1.14519.5.2.1.6279.6001.177685820605315926524514718990.mhd'
p292
aS'D:/data/subset3/1.3.6.1.4.1.14519.5.2.1.6279.6001.177785764461425908755977367558.mhd'
p293
aS'D:/data/subset3/1.3.6.1.4.1.14519.5.2.1.6279.6001.177985905159808659201278495182.mhd'
p294
aS'D:/data/subset3/1.3.6.1.4.1.14519.5.2.1.6279.6001.179730018513720561213088132029.mhd'
p295
aS'D:/data/subset3/1.3.6.1.4.1.14519.5.2.1.6279.6001.191266041369462391833537519639.mhd'
p296
aS'D:/data/subset3/1.3.6.1.4.1.14519.5.2.1.6279.6001.191617711875409989053242965150.mhd'
p297
aS'D:/data/subset3/1.3.6.1.4.1.14519.5.2.1.6279.6001.192419869605596446455526220766.mhd'
p298
aS'D:/data/subset3/1.3.6.1.4.1.14519.5.2.1.6279.6001.194488534645348916700259325236.mhd'
p299
aS'D:/data/subset3/1.3.6.1.4.1.14519.5.2.1.6279.6001.197063290812663596858124411210.mhd'
p300
aS'D:/data/subset3/1.3.6.1.4.1.14519.5.2.1.6279.6001.199069398344356765037879821616.mhd'
p301
aS'D:/data/subset3/1.3.6.1.4.1.14519.5.2.1.6279.6001.199670099218798685977406484591.mhd'
p302
aS'D:/data/subset3/1.3.6.1.4.1.14519.5.2.1.6279.6001.202187810895588720702176009630.mhd'
p303
aS'D:/data/subset3/1.3.6.1.4.1.14519.5.2.1.6279.6001.202464973819273687476049035824.mhd'
p304
aS'D:/data/subset3/1.3.6.1.4.1.14519.5.2.1.6279.6001.202476538079060560282495099956.mhd'
p305
aS'D:/data/subset3/1.3.6.1.4.1.14519.5.2.1.6279.6001.203741923654363010377298352671.mhd'
p306
aS'D:/data/subset3/1.3.6.1.4.1.14519.5.2.1.6279.6001.204303454658845815034433453512.mhd'
p307
aS'D:/data/subset3/1.3.6.1.4.1.14519.5.2.1.6279.6001.205852555362702089950453265567.mhd'
p308
aS'D:/data/subset3/1.3.6.1.4.1.14519.5.2.1.6279.6001.208511362832825683639135205368.mhd'
p309
aS'D:/data/subset3/1.3.6.1.4.1.14519.5.2.1.6279.6001.210426531621179400035178209430.mhd'
p310
aS'D:/data/subset3/1.3.6.1.4.1.14519.5.2.1.6279.6001.215086589927307766627151367533.mhd'
p311
aS'D:/data/subset3/1.3.6.1.4.1.14519.5.2.1.6279.6001.219349715895470349269596532320.mhd'
p312
aS'D:/data/subset3/1.3.6.1.4.1.14519.5.2.1.6279.6001.225227615446398900698431118292.mhd'
p313
aS'D:/data/subset3/1.3.6.1.4.1.14519.5.2.1.6279.6001.229664630348267553620068691756.mhd'
p314
aS'D:/data/subset3/1.3.6.1.4.1.14519.5.2.1.6279.6001.237428977311365557972720635401.mhd'
p315
aS'D:/data/subset3/1.3.6.1.4.1.14519.5.2.1.6279.6001.244204120220889433826451158706.mhd'
p316
aS'D:/data/subset3/1.3.6.1.4.1.14519.5.2.1.6279.6001.244447966386688625240438849169.mhd'
p317
aS'D:/data/subset3/1.3.6.1.4.1.14519.5.2.1.6279.6001.244681063194071446501270815660.mhd'
p318
aS'D:/data/subset3/1.3.6.1.4.1.14519.5.2.1.6279.6001.252697338970999211181671881792.mhd'
p319
aS'D:/data/subset3/1.3.6.1.4.1.14519.5.2.1.6279.6001.254254303842550572473665729969.mhd'
p320
aS'D:/data/subset3/1.3.6.1.4.1.14519.5.2.1.6279.6001.264090899378396711987322794314.mhd'
p321
aS'D:/data/subset3/1.3.6.1.4.1.14519.5.2.1.6279.6001.268589491017129166376960414534.mhd'
p322
aS'D:/data/subset3/1.3.6.1.4.1.14519.5.2.1.6279.6001.268838889380981659524993261082.mhd'
p323
aS'D:/data/subset3/1.3.6.1.4.1.14519.5.2.1.6279.6001.269075535958871753309238331179.mhd'
p324
aS'D:/data/subset3/1.3.6.1.4.1.14519.5.2.1.6279.6001.272190966764020277652079081128.mhd'
p325
aS'D:/data/subset3/1.3.6.1.4.1.14519.5.2.1.6279.6001.274052674198758621258447180130.mhd'
p326
aS'D:/data/subset3/1.3.6.1.4.1.14519.5.2.1.6279.6001.275007193025729362844652516689.mhd'
p327
aS'D:/data/subset3/1.3.6.1.4.1.14519.5.2.1.6279.6001.276556509002726404418399209377.mhd'
p328
aS'D:/data/subset3/1.3.6.1.4.1.14519.5.2.1.6279.6001.277662902666135640561346462196.mhd'
p329
aS'D:/data/subset3/1.3.6.1.4.1.14519.5.2.1.6279.6001.278010349511857248000260557753.mhd'
p330
aS'D:/data/subset3/1.3.6.1.4.1.14519.5.2.1.6279.6001.292057261351416339496913597985.mhd'
p331
aS'D:/data/subset3/1.3.6.1.4.1.14519.5.2.1.6279.6001.293593766328917170359373773080.mhd'
p332
aS'D:/data/subset3/1.3.6.1.4.1.14519.5.2.1.6279.6001.300246184547502297539521283806.mhd'
p333
aS'D:/data/subset3/1.3.6.1.4.1.14519.5.2.1.6279.6001.313283554967554803238484128406.mhd'
p334
aS'D:/data/subset3/1.3.6.1.4.1.14519.5.2.1.6279.6001.314519596680450457855054746285.mhd'
p335
aS'D:/data/subset3/1.3.6.1.4.1.14519.5.2.1.6279.6001.319009811633846643966578282371.mhd'
p336
aS'D:/data/subset3/1.3.6.1.4.1.14519.5.2.1.6279.6001.319066480138812986026181758474.mhd'
p337
aS'D:/data/subset3/1.3.6.1.4.1.14519.5.2.1.6279.6001.321465552859463184018938648244.mhd'
p338
aS'D:/data/subset3/1.3.6.1.4.1.14519.5.2.1.6279.6001.323541312620128092852212458228.mhd'
p339
aS'D:/data/subset3/1.3.6.1.4.1.14519.5.2.1.6279.6001.324290109423920971676288828329.mhd'
p340
aS'D:/data/subset3/1.3.6.1.4.1.14519.5.2.1.6279.6001.324567010179873305471925391582.mhd'
p341
aS'D:/data/subset3/1.3.6.1.4.1.14519.5.2.1.6279.6001.334022941831199910030220864961.mhd'
p342
aS'D:/data/subset3/1.3.6.1.4.1.14519.5.2.1.6279.6001.336225579776978874775723463327.mhd'
p343
aS'D:/data/subset3/1.3.6.1.4.1.14519.5.2.1.6279.6001.339142594937666268384335506819.mhd'
p344
aS'D:/data/subset3/1.3.6.1.4.1.14519.5.2.1.6279.6001.367204840301639918160517361062.mhd'
p345
aS'D:/data/subset3/1.3.6.1.4.1.14519.5.2.1.6279.6001.398955972049286139436103068984.mhd'
p346
aS'D:/data/subset3/1.3.6.1.4.1.14519.5.2.1.6279.6001.404768898286087278137462774930.mhd'
p347
aS'D:/data/subset3/1.3.6.1.4.1.14519.5.2.1.6279.6001.481278873893653517789960724156.mhd'
p348
aS'D:/data/subset3/1.3.6.1.4.1.14519.5.2.1.6279.6001.487745546557477250336016826588.mhd'
p349
aS'D:/data/subset3/1.3.6.1.4.1.14519.5.2.1.6279.6001.603166427542096384265514998412.mhd'
p350
aS'D:/data/subset3/1.3.6.1.4.1.14519.5.2.1.6279.6001.614147706162329660656328811671.mhd'
p351
aS'D:/data/subset3/1.3.6.1.4.1.14519.5.2.1.6279.6001.619372068417051974713149104919.mhd'
p352
aS'D:/data/subset3/1.3.6.1.4.1.14519.5.2.1.6279.6001.625270601160880745954773142570.mhd'
p353
aS'D:/data/subset3/1.3.6.1.4.1.14519.5.2.1.6279.6001.710845873679853791427022019413.mhd'
p354
aS'D:/data/subset3/1.3.6.1.4.1.14519.5.2.1.6279.6001.822128649427327893802314908658.mhd'
p355
aS'D:/data/subset3/1.3.6.1.4.1.14519.5.2.1.6279.6001.842317928015463083368074520378.mhd'
p356
aS'D:/data/subset3/1.3.6.1.4.1.14519.5.2.1.6279.6001.850739282072340578344345230132.mhd'
p357
aS'D:/data/subset3/1.3.6.1.4.1.14519.5.2.1.6279.6001.961063442349005937536597225349.mhd'
p358
aS'D:/data/subset3/1.3.6.1.4.1.14519.5.2.1.6279.6001.965620538050807352935663552285.mhd'
p359
aS'D:/data/subset3/1.3.6.1.4.1.14519.5.2.1.6279.6001.969607480572818589276327766720.mhd'
p360
aS'D:/data/subset3/1.3.6.1.4.1.14519.5.2.1.6279.6001.970428941353693253759289796610.mhd'
p361
aS'D:/data/subset3/1.3.6.1.4.1.14519.5.2.1.6279.6001.975426625618184773401026809852.mhd'
p362
aS'D:/data/subset4/1.3.6.1.4.1.14519.5.2.1.6279.6001.100530488926682752765845212286.mhd'
p363
aS'D:/data/subset4/1.3.6.1.4.1.14519.5.2.1.6279.6001.103115201714075993579787468219.mhd'
p364
aS'D:/data/subset4/1.3.6.1.4.1.14519.5.2.1.6279.6001.104780906131535625872840889059.mhd'
p365
aS'D:/data/subset4/1.3.6.1.4.1.14519.5.2.1.6279.6001.107351566259572521472765997306.mhd'
p366
aS'D:/data/subset4/1.3.6.1.4.1.14519.5.2.1.6279.6001.114195693932194925962391697338.mhd'
p367
aS'D:/data/subset4/1.3.6.1.4.1.14519.5.2.1.6279.6001.115386642382564804180764325545.mhd'
p368
aS'D:/data/subset4/1.3.6.1.4.1.14519.5.2.1.6279.6001.119806527488108718706404165837.mhd'
p369
aS'D:/data/subset4/1.3.6.1.4.1.14519.5.2.1.6279.6001.122914038048856168343065566972.mhd'
p370
aS'D:/data/subset4/1.3.6.1.4.1.14519.5.2.1.6279.6001.125067060506283419853742462394.mhd'
p371
aS'D:/data/subset4/1.3.6.1.4.1.14519.5.2.1.6279.6001.141430002307216644912805017227.mhd'
p372
aS'D:/data/subset4/1.3.6.1.4.1.14519.5.2.1.6279.6001.141511313712034597336182402384.mhd'
p373
aS'D:/data/subset4/1.3.6.1.4.1.14519.5.2.1.6279.6001.142154819868944114554521645782.mhd'
p374
aS'D:/data/subset4/1.3.6.1.4.1.14519.5.2.1.6279.6001.145283812746259413053188838096.mhd'
p375
aS'D:/data/subset4/1.3.6.1.4.1.14519.5.2.1.6279.6001.146987333806092287055399155268.mhd'
p376
aS'D:/data/subset4/1.3.6.1.4.1.14519.5.2.1.6279.6001.148229375703208214308676934766.mhd'
p377
aS'D:/data/subset4/1.3.6.1.4.1.14519.5.2.1.6279.6001.156821379677057223126714881626.mhd'
p378
aS'D:/data/subset4/1.3.6.1.4.1.14519.5.2.1.6279.6001.161855583909753609742728521805.mhd'
p379
aS'D:/data/subset4/1.3.6.1.4.1.14519.5.2.1.6279.6001.163931625580639955914619627409.mhd'
p380
aS'D:/data/subset4/1.3.6.1.4.1.14519.5.2.1.6279.6001.164988920331211858091402361989.mhd'
p381
aS'D:/data/subset4/1.3.6.1.4.1.14519.5.2.1.6279.6001.173101104804533997398137418032.mhd'
p382
aS'D:/data/subset4/1.3.6.1.4.1.14519.5.2.1.6279.6001.177252583002664900748714851615.mhd'
p383
aS'D:/data/subset4/1.3.6.1.4.1.14519.5.2.1.6279.6001.178680586845223339579041794709.mhd'
p384
aS'D:/data/subset4/1.3.6.1.4.1.14519.5.2.1.6279.6001.185226274332527104841463955058.mhd'
p385
aS'D:/data/subset4/1.3.6.1.4.1.14519.5.2.1.6279.6001.189483585244687808087477024767.mhd'
p386
aS'D:/data/subset4/1.3.6.1.4.1.14519.5.2.1.6279.6001.198698492013538481395497694975.mhd'
p387
aS'D:/data/subset4/1.3.6.1.4.1.14519.5.2.1.6279.6001.200837896655745926888305239398.mhd'
p388
aS'D:/data/subset4/1.3.6.1.4.1.14519.5.2.1.6279.6001.202643836890896697853521610450.mhd'
p389
aS'D:/data/subset4/1.3.6.1.4.1.14519.5.2.1.6279.6001.203179378754043776171267611064.mhd'
p390
aS'D:/data/subset4/1.3.6.1.4.1.14519.5.2.1.6279.6001.204802250386343794613980417281.mhd'
p391
aS'D:/data/subset4/1.3.6.1.4.1.14519.5.2.1.6279.6001.205993750485568250373835565680.mhd'
p392
aS'D:/data/subset4/1.3.6.1.4.1.14519.5.2.1.6279.6001.209269973797560820442292189762.mhd'
p393
aS'D:/data/subset4/1.3.6.1.4.1.14519.5.2.1.6279.6001.211051626197585058967163339846.mhd'
p394
aS'D:/data/subset4/1.3.6.1.4.1.14519.5.2.1.6279.6001.211071908915618528829547301883.mhd'
p395
aS'D:/data/subset4/1.3.6.1.4.1.14519.5.2.1.6279.6001.211956804948320236390242845468.mhd'
p396
aS'D:/data/subset4/1.3.6.1.4.1.14519.5.2.1.6279.6001.214800939017429618305208626314.mhd'
p397
aS'D:/data/subset4/1.3.6.1.4.1.14519.5.2.1.6279.6001.216252660192313507027754194207.mhd'
p398
aS'D:/data/subset4/1.3.6.1.4.1.14519.5.2.1.6279.6001.218476624578721885561483687176.mhd'
p399
aS'D:/data/subset4/1.3.6.1.4.1.14519.5.2.1.6279.6001.228511122591230092662900221600.mhd'
p400
aS'D:/data/subset4/1.3.6.1.4.1.14519.5.2.1.6279.6001.230416590143922549745658357505.mhd'
p401
aS'D:/data/subset4/1.3.6.1.4.1.14519.5.2.1.6279.6001.232011770495640253949434620907.mhd'
p402
aS'D:/data/subset4/1.3.6.1.4.1.14519.5.2.1.6279.6001.232058316950007760548968840196.mhd'
p403
aS'D:/data/subset4/1.3.6.1.4.1.14519.5.2.1.6279.6001.242761658169703141430370511586.mhd'
p404
aS'D:/data/subset4/1.3.6.1.4.1.14519.5.2.1.6279.6001.244590453955380448651329424024.mhd'
p405
aS'D:/data/subset4/1.3.6.1.4.1.14519.5.2.1.6279.6001.248357157975955379661896491341.mhd'
p406
aS'D:/data/subset4/1.3.6.1.4.1.14519.5.2.1.6279.6001.252358625003143649770119512644.mhd'
p407
aS'D:/data/subset4/1.3.6.1.4.1.14519.5.2.1.6279.6001.259123825760999546551970425757.mhd'
p408
aS'D:/data/subset4/1.3.6.1.4.1.14519.5.2.1.6279.6001.261678072503577216586082745513.mhd'
p409
aS'D:/data/subset4/1.3.6.1.4.1.14519.5.2.1.6279.6001.265775376735520890308424143898.mhd'
p410
aS'D:/data/subset4/1.3.6.1.4.1.14519.5.2.1.6279.6001.265960756233787099041040311282.mhd'
p411
aS'D:/data/subset4/1.3.6.1.4.1.14519.5.2.1.6279.6001.268992195564407418480563388746.mhd'
p412
aS'D:/data/subset4/1.3.6.1.4.1.14519.5.2.1.6279.6001.270215889102603268207599305185.mhd'
p413
aS'D:/data/subset4/1.3.6.1.4.1.14519.5.2.1.6279.6001.276710697414087561012670296643.mhd'
p414
aS'D:/data/subset4/1.3.6.1.4.1.14519.5.2.1.6279.6001.287560874054243719452635194040.mhd'
p415
aS'D:/data/subset4/1.3.6.1.4.1.14519.5.2.1.6279.6001.300146276266881736689307479986.mhd'
p416
aS'D:/data/subset4/1.3.6.1.4.1.14519.5.2.1.6279.6001.303865116731361029078599241306.mhd'
p417
aS'D:/data/subset4/1.3.6.1.4.1.14519.5.2.1.6279.6001.304676828064484590312919543151.mhd'
p418
aS'D:/data/subset4/1.3.6.1.4.1.14519.5.2.1.6279.6001.304700823314998198591652152637.mhd'
p419
aS'D:/data/subset4/1.3.6.1.4.1.14519.5.2.1.6279.6001.307835307280028057486413359377.mhd'
p420
aS'D:/data/subset4/1.3.6.1.4.1.14519.5.2.1.6279.6001.312704771348460502013249647868.mhd'
p421
aS'D:/data/subset4/1.3.6.1.4.1.14519.5.2.1.6279.6001.316393351033132458296975008261.mhd'
p422
aS'D:/data/subset4/1.3.6.1.4.1.14519.5.2.1.6279.6001.320111824803959660037459294083.mhd'
p423
aS'D:/data/subset4/1.3.6.1.4.1.14519.5.2.1.6279.6001.320967206808467952819309001585.mhd'
p424
aS'D:/data/subset4/1.3.6.1.4.1.14519.5.2.1.6279.6001.329326052298830421573852261436.mhd'
p425
aS'D:/data/subset4/1.3.6.1.4.1.14519.5.2.1.6279.6001.330425234131526435132846006585.mhd'
p426
aS'D:/data/subset4/1.3.6.1.4.1.14519.5.2.1.6279.6001.333319057944372470283038483725.mhd'
p427
aS'D:/data/subset4/1.3.6.1.4.1.14519.5.2.1.6279.6001.337845202462615014431060697507.mhd'
p428
aS'D:/data/subset4/1.3.6.1.4.1.14519.5.2.1.6279.6001.339546614783708685476232944897.mhd'
p429
aS'D:/data/subset4/1.3.6.1.4.1.14519.5.2.1.6279.6001.385151742584074711135621089321.mhd'
p430
aS'D:/data/subset4/1.3.6.1.4.1.14519.5.2.1.6279.6001.390009458146468860187238398197.mhd'
p431
aS'D:/data/subset4/1.3.6.1.4.1.14519.5.2.1.6279.6001.390513733720659266816639651938.mhd'
p432
aS'D:/data/subset4/1.3.6.1.4.1.14519.5.2.1.6279.6001.401389720232123950202941034290.mhd'
p433
aS'D:/data/subset4/1.3.6.1.4.1.14519.5.2.1.6279.6001.419601611032172899567156073142.mhd'
p434
aS'D:/data/subset4/1.3.6.1.4.1.14519.5.2.1.6279.6001.428038562098395445838061018440.mhd'
p435
aS'D:/data/subset4/1.3.6.1.4.1.14519.5.2.1.6279.6001.438308540025607517017949816111.mhd'
p436
aS'D:/data/subset4/1.3.6.1.4.1.14519.5.2.1.6279.6001.449254134266555649028108149727.mhd'
p437
aS'D:/data/subset4/1.3.6.1.4.1.14519.5.2.1.6279.6001.463214953282361219537913355115.mhd'
p438
aS'D:/data/subset4/1.3.6.1.4.1.14519.5.2.1.6279.6001.584871944187559733312703328980.mhd'
p439
aS'D:/data/subset4/1.3.6.1.4.1.14519.5.2.1.6279.6001.631047517458234322522264161877.mhd'
p440
aS'D:/data/subset4/1.3.6.1.4.1.14519.5.2.1.6279.6001.670107649586205629860363487713.mhd'
p441
aS'D:/data/subset4/1.3.6.1.4.1.14519.5.2.1.6279.6001.741709061958490690246385302477.mhd'
p442
aS'D:/data/subset4/1.3.6.1.4.1.14519.5.2.1.6279.6001.779493719385047675154892222907.mhd'
p443
aS'D:/data/subset4/1.3.6.1.4.1.14519.5.2.1.6279.6001.780558315515979171413904604168.mhd'
p444
aS'D:/data/subset4/1.3.6.1.4.1.14519.5.2.1.6279.6001.797637294244261543517154417124.mhd'
p445
aS'D:/data/subset4/1.3.6.1.4.1.14519.5.2.1.6279.6001.799582546798528864710752164515.mhd'
p446
aS'D:/data/subset4/1.3.6.1.4.1.14519.5.2.1.6279.6001.811825890493256320617655474043.mhd'
p447
aS'D:/data/subset4/1.3.6.1.4.1.14519.5.2.1.6279.6001.826829446346820089862659555750.mhd'
p448
aS'D:/data/subset4/1.3.6.1.4.1.14519.5.2.1.6279.6001.885168397833922082085837240429.mhd'
p449
aS'D:/data/subset4/1.3.6.1.4.1.14519.5.2.1.6279.6001.897684031374557757145405000951.mhd'
p450
aS'D:/data/subset4/1.3.6.1.4.1.14519.5.2.1.6279.6001.910435939545691201820711078950.mhd'
p451
aS'D:/data/subset5/1.3.6.1.4.1.14519.5.2.1.6279.6001.100332161840553388986847034053.mhd'
p452
aS'D:/data/subset5/1.3.6.1.4.1.14519.5.2.1.6279.6001.100398138793540579077826395208.mhd'
p453
aS'D:/data/subset5/1.3.6.1.4.1.14519.5.2.1.6279.6001.101228986346984399347858840086.mhd'
p454
aS'D:/data/subset5/1.3.6.1.4.1.14519.5.2.1.6279.6001.106419850406056634877579573537.mhd'
p455
aS'D:/data/subset5/1.3.6.1.4.1.14519.5.2.1.6279.6001.110678335949765929063942738609.mhd'
p456
aS'D:/data/subset5/1.3.6.1.4.1.14519.5.2.1.6279.6001.111258527162678142285870245028.mhd'
p457
aS'D:/data/subset5/1.3.6.1.4.1.14519.5.2.1.6279.6001.111780708132595903430640048766.mhd'
p458
aS'D:/data/subset5/1.3.6.1.4.1.14519.5.2.1.6279.6001.112740418331256326754121315800.mhd'
p459
aS'D:/data/subset5/1.3.6.1.4.1.14519.5.2.1.6279.6001.118140393257625250121502185026.mhd'
p460
aS'D:/data/subset5/1.3.6.1.4.1.14519.5.2.1.6279.6001.120196332569034738680965284519.mhd'
p461
aS'D:/data/subset5/1.3.6.1.4.1.14519.5.2.1.6279.6001.129567032250534530765928856531.mhd'
p462
aS'D:/data/subset5/1.3.6.1.4.1.14519.5.2.1.6279.6001.132817748896065918417924920957.mhd'
p463
aS'D:/data/subset5/1.3.6.1.4.1.14519.5.2.1.6279.6001.133132722052053001903031735878.mhd'
p464
aS'D:/data/subset5/1.3.6.1.4.1.14519.5.2.1.6279.6001.134638281277099121660656324702.mhd'
p465
aS'D:/data/subset5/1.3.6.1.4.1.14519.5.2.1.6279.6001.138894439026794145866157853158.mhd'
p466
aS'D:/data/subset5/1.3.6.1.4.1.14519.5.2.1.6279.6001.138904664700896606480369521124.mhd'
p467
aS'D:/data/subset5/1.3.6.1.4.1.14519.5.2.1.6279.6001.140239815496047437552471323962.mhd'
p468
aS'D:/data/subset5/1.3.6.1.4.1.14519.5.2.1.6279.6001.143410010885830403003179808334.mhd'
p469
aS'D:/data/subset5/1.3.6.1.4.1.14519.5.2.1.6279.6001.143782059748737055784173697516.mhd'
p470
aS'D:/data/subset5/1.3.6.1.4.1.14519.5.2.1.6279.6001.152706273988004688708784163325.mhd'
p471
aS'D:/data/subset5/1.3.6.1.4.1.14519.5.2.1.6279.6001.154837327827713479309898027966.mhd'
p472
aS'D:/data/subset5/1.3.6.1.4.1.14519.5.2.1.6279.6001.160124400349792614505500125883.mhd'
p473
aS'D:/data/subset5/1.3.6.1.4.1.14519.5.2.1.6279.6001.160586340600816116143631200450.mhd'
p474
aS'D:/data/subset5/1.3.6.1.4.1.14519.5.2.1.6279.6001.162351539386551708034407968929.mhd'
p475
aS'D:/data/subset5/1.3.6.1.4.1.14519.5.2.1.6279.6001.174907798609768549012640380786.mhd'
p476
aS'D:/data/subset5/1.3.6.1.4.1.14519.5.2.1.6279.6001.174935793360491516757154875981.mhd'
p477
aS'D:/data/subset5/1.3.6.1.4.1.14519.5.2.1.6279.6001.176638348958425792989125209419.mhd'
p478
aS'D:/data/subset5/1.3.6.1.4.1.14519.5.2.1.6279.6001.178391668569567816549737454720.mhd'
p479
aS'D:/data/subset5/1.3.6.1.4.1.14519.5.2.1.6279.6001.183056151780567460322586876100.mhd'
p480
aS'D:/data/subset5/1.3.6.1.4.1.14519.5.2.1.6279.6001.188265424231150847356515802868.mhd'
p481
aS'D:/data/subset5/1.3.6.1.4.1.14519.5.2.1.6279.6001.188484197846284733942365679565.mhd'
p482
aS'D:/data/subset5/1.3.6.1.4.1.14519.5.2.1.6279.6001.190144948425835566841437565646.mhd'
p483
aS'D:/data/subset5/1.3.6.1.4.1.14519.5.2.1.6279.6001.194246472548954252250399902051.mhd'
p484
aS'D:/data/subset5/1.3.6.1.4.1.14519.5.2.1.6279.6001.200841000324240313648595016964.mhd'
p485
aS'D:/data/subset5/1.3.6.1.4.1.14519.5.2.1.6279.6001.201890795870532056891161597218.mhd'
p486
aS'D:/data/subset5/1.3.6.1.4.1.14519.5.2.1.6279.6001.205523326998654833765855998037.mhd'
p487
aS'D:/data/subset5/1.3.6.1.4.1.14519.5.2.1.6279.6001.205615524269596458818376243313.mhd'
p488
aS'D:/data/subset5/1.3.6.1.4.1.14519.5.2.1.6279.6001.219281726101239572270900838145.mhd'
p489
aS'D:/data/subset5/1.3.6.1.4.1.14519.5.2.1.6279.6001.219428004988664846407984058588.mhd'
p490
aS'D:/data/subset5/1.3.6.1.4.1.14519.5.2.1.6279.6001.224465398054769500989828256685.mhd'
p491
aS'D:/data/subset5/1.3.6.1.4.1.14519.5.2.1.6279.6001.229171189693734694696158152904.mhd'
p492
aS'D:/data/subset5/1.3.6.1.4.1.14519.5.2.1.6279.6001.234400932423244218697302970157.mhd'
p493
aS'D:/data/subset5/1.3.6.1.4.1.14519.5.2.1.6279.6001.238042459915048190592571019348.mhd'
p494
aS'D:/data/subset5/1.3.6.1.4.1.14519.5.2.1.6279.6001.238855414831158993232534884296.mhd'
p495
aS'D:/data/subset5/1.3.6.1.4.1.14519.5.2.1.6279.6001.244442540088515471945035689377.mhd'
p496
aS'D:/data/subset5/1.3.6.1.4.1.14519.5.2.1.6279.6001.245349763807614756148761326488.mhd'
p497
aS'D:/data/subset5/1.3.6.1.4.1.14519.5.2.1.6279.6001.245391706475696258069508046497.mhd'
p498
aS'D:/data/subset5/1.3.6.1.4.1.14519.5.2.1.6279.6001.246225645401227472829175288633.mhd'
p499
aS'D:/data/subset5/1.3.6.1.4.1.14519.5.2.1.6279.6001.246589849815292078281051154201.mhd'
p500
aS'D:/data/subset5/1.3.6.1.4.1.14519.5.2.1.6279.6001.255999614855292116767517149228.mhd'
p501
aS'D:/data/subset5/1.3.6.1.4.1.14519.5.2.1.6279.6001.257840703452266097926250569223.mhd'
p502
aS'D:/data/subset5/1.3.6.1.4.1.14519.5.2.1.6279.6001.258220324170977900491673635112.mhd'
p503
aS'D:/data/subset5/1.3.6.1.4.1.14519.5.2.1.6279.6001.262736997975960398949912434623.mhd'
p504
aS'D:/data/subset5/1.3.6.1.4.1.14519.5.2.1.6279.6001.273525289046256012743471155680.mhd'
p505
aS'D:/data/subset5/1.3.6.1.4.1.14519.5.2.1.6279.6001.275755514659958628040305922764.mhd'
p506
aS'D:/data/subset5/1.3.6.1.4.1.14519.5.2.1.6279.6001.275986221854423197884953496664.mhd'
p507
aS'D:/data/subset5/1.3.6.1.4.1.14519.5.2.1.6279.6001.285926554490515269336267972830.mhd'
p508
aS'D:/data/subset5/1.3.6.1.4.1.14519.5.2.1.6279.6001.290135156874098366424871975734.mhd'
p509
aS'D:/data/subset5/1.3.6.1.4.1.14519.5.2.1.6279.6001.291539125579672469833850180824.mhd'
p510
aS'D:/data/subset5/1.3.6.1.4.1.14519.5.2.1.6279.6001.296738183013079390785739615169.mhd'
p511
aS'D:/data/subset5/1.3.6.1.4.1.14519.5.2.1.6279.6001.299476369290630280560355838785.mhd'
p512
aS'D:/data/subset5/1.3.6.1.4.1.14519.5.2.1.6279.6001.301582691063019848479942618641.mhd'
p513
aS'D:/data/subset5/1.3.6.1.4.1.14519.5.2.1.6279.6001.308655308958459380153492314021.mhd'
p514
aS'D:/data/subset5/1.3.6.1.4.1.14519.5.2.1.6279.6001.309955814083231537823157605135.mhd'
p515
aS'D:/data/subset5/1.3.6.1.4.1.14519.5.2.1.6279.6001.323408652979949774528873200770.mhd'
p516
aS'D:/data/subset5/1.3.6.1.4.1.14519.5.2.1.6279.6001.323899724653546164058849558431.mhd'
p517
aS'D:/data/subset5/1.3.6.1.4.1.14519.5.2.1.6279.6001.328695385904874796172316226975.mhd'
p518
aS'D:/data/subset5/1.3.6.1.4.1.14519.5.2.1.6279.6001.334184846571549530235084187602.mhd'
p519
aS'D:/data/subset5/1.3.6.1.4.1.14519.5.2.1.6279.6001.338104567770715523699587505022.mhd'
p520
aS'D:/data/subset5/1.3.6.1.4.1.14519.5.2.1.6279.6001.338114620394879648539943280992.mhd'
p521
aS'D:/data/subset5/1.3.6.1.4.1.14519.5.2.1.6279.6001.338875090785618956575597613546.mhd'
p522
aS'D:/data/subset5/1.3.6.1.4.1.14519.5.2.1.6279.6001.339882192295517122002429068974.mhd'
p523
aS'D:/data/subset5/1.3.6.1.4.1.14519.5.2.1.6279.6001.394470743585708729682444806008.mhd'
p524
aS'D:/data/subset5/1.3.6.1.4.1.14519.5.2.1.6279.6001.397202838387416555106806022938.mhd'
p525
aS'D:/data/subset5/1.3.6.1.4.1.14519.5.2.1.6279.6001.413896555982844732694353377538.mhd'
p526
aS'D:/data/subset5/1.3.6.1.4.1.14519.5.2.1.6279.6001.439153572396640163898529626096.mhd'
p527
aS'D:/data/subset5/1.3.6.1.4.1.14519.5.2.1.6279.6001.504845428620607044098514803031.mhd'
p528
aS'D:/data/subset5/1.3.6.1.4.1.14519.5.2.1.6279.6001.553241901808946577644850294647.mhd'
p529
aS'D:/data/subset5/1.3.6.1.4.1.14519.5.2.1.6279.6001.596908385953413160131451426904.mhd'
p530
aS'D:/data/subset5/1.3.6.1.4.1.14519.5.2.1.6279.6001.627998298349675613581885874395.mhd'
p531
aS'D:/data/subset5/1.3.6.1.4.1.14519.5.2.1.6279.6001.693480911433291675609148051914.mhd'
p532
aS'D:/data/subset5/1.3.6.1.4.1.14519.5.2.1.6279.6001.725023183844147505748475581290.mhd'
p533
aS'D:/data/subset5/1.3.6.1.4.1.14519.5.2.1.6279.6001.745109871503276594185453478952.mhd'
p534
aS'D:/data/subset5/1.3.6.1.4.1.14519.5.2.1.6279.6001.750792629100457382099842515038.mhd'
p535
aS'D:/data/subset5/1.3.6.1.4.1.14519.5.2.1.6279.6001.842980983137518332429408284002.mhd'
p536
aS'D:/data/subset5/1.3.6.1.4.1.14519.5.2.1.6279.6001.866845763956586959109892274084.mhd'
p537
aS'D:/data/subset5/1.3.6.1.4.1.14519.5.2.1.6279.6001.910757789941076242457816491305.mhd'
p538
aS'D:/data/subset5/1.3.6.1.4.1.14519.5.2.1.6279.6001.980362852713685276785310240144.mhd'
p539
aS'D:/data/subset5/1.3.6.1.4.1.14519.5.2.1.6279.6001.986011151772797848993829243183.mhd'
p540
aS'D:/data/subset6/1.3.6.1.4.1.14519.5.2.1.6279.6001.106630482085576298661469304872.mhd'
p541
aS'D:/data/subset6/1.3.6.1.4.1.14519.5.2.1.6279.6001.107109359065300889765026303943.mhd'
p542
aS'D:/data/subset6/1.3.6.1.4.1.14519.5.2.1.6279.6001.117040183261056772902616195387.mhd'
p543
aS'D:/data/subset6/1.3.6.1.4.1.14519.5.2.1.6279.6001.119209873306155771318545953948.mhd'
p544
aS'D:/data/subset6/1.3.6.1.4.1.14519.5.2.1.6279.6001.119304665257760307862874140576.mhd'
p545
aS'D:/data/subset6/1.3.6.1.4.1.14519.5.2.1.6279.6001.119515474430718803379832249911.mhd'
p546
aS'D:/data/subset6/1.3.6.1.4.1.14519.5.2.1.6279.6001.120842785645314664964010792308.mhd'
p547
aS'D:/data/subset6/1.3.6.1.4.1.14519.5.2.1.6279.6001.123654356399290048011621921476.mhd'
p548
aS'D:/data/subset6/1.3.6.1.4.1.14519.5.2.1.6279.6001.129007566048223160327836686225.mhd'
p549
aS'D:/data/subset6/1.3.6.1.4.1.14519.5.2.1.6279.6001.130765375502800983459674173881.mhd'
p550
aS'D:/data/subset6/1.3.6.1.4.1.14519.5.2.1.6279.6001.136830368929967292376608088362.mhd'
p551
aS'D:/data/subset6/1.3.6.1.4.1.14519.5.2.1.6279.6001.147325126373007278009743173696.mhd'
p552
aS'D:/data/subset6/1.3.6.1.4.1.14519.5.2.1.6279.6001.149893110752986700464921264055.mhd'
p553
aS'D:/data/subset6/1.3.6.1.4.1.14519.5.2.1.6279.6001.150684298696437181894923266019.mhd'
p554
aS'D:/data/subset6/1.3.6.1.4.1.14519.5.2.1.6279.6001.151764021165118974848436095034.mhd'
p555
aS'D:/data/subset6/1.3.6.1.4.1.14519.5.2.1.6279.6001.153646219551578201092527860224.mhd'
p556
aS'D:/data/subset6/1.3.6.1.4.1.14519.5.2.1.6279.6001.156016499715048493339281864474.mhd'
p557
aS'D:/data/subset6/1.3.6.1.4.1.14519.5.2.1.6279.6001.161067514225109999586362698069.mhd'
p558
aS'D:/data/subset6/1.3.6.1.4.1.14519.5.2.1.6279.6001.164790817284381538042494285101.mhd'
p559
aS'D:/data/subset6/1.3.6.1.4.1.14519.5.2.1.6279.6001.167237290696350215427953159586.mhd'
p560
aS'D:/data/subset6/1.3.6.1.4.1.14519.5.2.1.6279.6001.168737928729363683423228050295.mhd'
p561
aS'D:/data/subset6/1.3.6.1.4.1.14519.5.2.1.6279.6001.168985655485163461062675655739.mhd'
p562
aS'D:/data/subset6/1.3.6.1.4.1.14519.5.2.1.6279.6001.170052181746004939527661217512.mhd'
p563
aS'D:/data/subset6/1.3.6.1.4.1.14519.5.2.1.6279.6001.170921541362033046216100409521.mhd'
p564
aS'D:/data/subset6/1.3.6.1.4.1.14519.5.2.1.6279.6001.171682845383273105440297561095.mhd'
p565
aS'D:/data/subset6/1.3.6.1.4.1.14519.5.2.1.6279.6001.173556680294801532247454313511.mhd'
p566
aS'D:/data/subset6/1.3.6.1.4.1.14519.5.2.1.6279.6001.174168737938619557573021395302.mhd'
p567
aS'D:/data/subset6/1.3.6.1.4.1.14519.5.2.1.6279.6001.176030616406569931557298712518.mhd'
p568
aS'D:/data/subset6/1.3.6.1.4.1.14519.5.2.1.6279.6001.177888806135892723698313903329.mhd'
p569
aS'D:/data/subset6/1.3.6.1.4.1.14519.5.2.1.6279.6001.182798854785392200340436516930.mhd'
p570
aS'D:/data/subset6/1.3.6.1.4.1.14519.5.2.1.6279.6001.190937805243443708408459490152.mhd'
p571
aS'D:/data/subset6/1.3.6.1.4.1.14519.5.2.1.6279.6001.200725988589959521302320481687.mhd'
p572
aS'D:/data/subset6/1.3.6.1.4.1.14519.5.2.1.6279.6001.221017801605543296514746423389.mhd'
p573
aS'D:/data/subset6/1.3.6.1.4.1.14519.5.2.1.6279.6001.226564372605239604660221582288.mhd'
p574
aS'D:/data/subset6/1.3.6.1.4.1.14519.5.2.1.6279.6001.233433352108264931671753343044.mhd'
p575
aS'D:/data/subset6/1.3.6.1.4.1.14519.5.2.1.6279.6001.233652865358649579816568545171.mhd'
p576
aS'D:/data/subset6/1.3.6.1.4.1.14519.5.2.1.6279.6001.235217371152464582553341729176.mhd'
p577
aS'D:/data/subset6/1.3.6.1.4.1.14519.5.2.1.6279.6001.240630002689062442926543993263.mhd'
p578
aS'D:/data/subset6/1.3.6.1.4.1.14519.5.2.1.6279.6001.241717018262666382493757419144.mhd'
p579
aS'D:/data/subset6/1.3.6.1.4.1.14519.5.2.1.6279.6001.245248446973732759194067808002.mhd'
p580
aS'D:/data/subset6/1.3.6.1.4.1.14519.5.2.1.6279.6001.247816269490470394602288565775.mhd'
p581
aS'D:/data/subset6/1.3.6.1.4.1.14519.5.2.1.6279.6001.249450003033735700817635168066.mhd'
p582
aS'D:/data/subset6/1.3.6.1.4.1.14519.5.2.1.6279.6001.251215764736737018371915284679.mhd'
p583
aS'D:/data/subset6/1.3.6.1.4.1.14519.5.2.1.6279.6001.252814707117018427472206147014.mhd'
p584
aS'D:/data/subset6/1.3.6.1.4.1.14519.5.2.1.6279.6001.254138388912084634057282064266.mhd'
p585
aS'D:/data/subset6/1.3.6.1.4.1.14519.5.2.1.6279.6001.254473943359963613733707320244.mhd'
p586
aS'D:/data/subset6/1.3.6.1.4.1.14519.5.2.1.6279.6001.255409701134762680010928250229.mhd'
p587
aS'D:/data/subset6/1.3.6.1.4.1.14519.5.2.1.6279.6001.266009527139315622265711325223.mhd'
p588
aS'D:/data/subset6/1.3.6.1.4.1.14519.5.2.1.6279.6001.270951128717816232360812849541.mhd'
p589
aS'D:/data/subset6/1.3.6.1.4.1.14519.5.2.1.6279.6001.275849601663847251574860892603.mhd'
p590
aS'D:/data/subset6/1.3.6.1.4.1.14519.5.2.1.6279.6001.277452631455527999380186898011.mhd'
p591
aS'D:/data/subset6/1.3.6.1.4.1.14519.5.2.1.6279.6001.282779922503707013097174625409.mhd'
p592
aS'D:/data/subset6/1.3.6.1.4.1.14519.5.2.1.6279.6001.286217539434358186648717203667.mhd'
p593
aS'D:/data/subset6/1.3.6.1.4.1.14519.5.2.1.6279.6001.290410217650314119074833254861.mhd'
p594
aS'D:/data/subset6/1.3.6.1.4.1.14519.5.2.1.6279.6001.292194861362266467652267941663.mhd'
p595
aS'D:/data/subset6/1.3.6.1.4.1.14519.5.2.1.6279.6001.297251044869095073091780740645.mhd'
p596
aS'D:/data/subset6/1.3.6.1.4.1.14519.5.2.1.6279.6001.306558074682524259000586270818.mhd'
p597
aS'D:/data/subset6/1.3.6.1.4.1.14519.5.2.1.6279.6001.307921770358136677021532761235.mhd'
p598
aS'D:/data/subset6/1.3.6.1.4.1.14519.5.2.1.6279.6001.308153138776443962077214577161.mhd'
p599
aS'D:/data/subset6/1.3.6.1.4.1.14519.5.2.1.6279.6001.309955999522338651429118207446.mhd'
p600
aS'D:/data/subset6/1.3.6.1.4.1.14519.5.2.1.6279.6001.313756547848086902190878548835.mhd'
p601
aS'D:/data/subset6/1.3.6.1.4.1.14519.5.2.1.6279.6001.315187221221054114974341475212.mhd'
p602
aS'D:/data/subset6/1.3.6.1.4.1.14519.5.2.1.6279.6001.315770913282450940389971401304.mhd'
p603
aS'D:/data/subset6/1.3.6.1.4.1.14519.5.2.1.6279.6001.316900421002460665752357657094.mhd'
p604
aS'D:/data/subset6/1.3.6.1.4.1.14519.5.2.1.6279.6001.316911475886263032009840828684.mhd'
p605
aS'D:/data/subset6/1.3.6.1.4.1.14519.5.2.1.6279.6001.321935195060268166151738328001.mhd'
p606
aS'D:/data/subset6/1.3.6.1.4.1.14519.5.2.1.6279.6001.329404588567903628160652715124.mhd'
p607
aS'D:/data/subset6/1.3.6.1.4.1.14519.5.2.1.6279.6001.329624439086643515259182406526.mhd'
p608
aS'D:/data/subset6/1.3.6.1.4.1.14519.5.2.1.6279.6001.330544495001617450666819906758.mhd'
p609
aS'D:/data/subset6/1.3.6.1.4.1.14519.5.2.1.6279.6001.338447145504282422142824032832.mhd'
p610
aS'D:/data/subset6/1.3.6.1.4.1.14519.5.2.1.6279.6001.341557859428950960906150406596.mhd'
p611
aS'D:/data/subset6/1.3.6.1.4.1.14519.5.2.1.6279.6001.404457313935200882843898832756.mhd'
p612
aS'D:/data/subset6/1.3.6.1.4.1.14519.5.2.1.6279.6001.414288023902112119945238126594.mhd'
p613
aS'D:/data/subset6/1.3.6.1.4.1.14519.5.2.1.6279.6001.416701701108520592702405866796.mhd'
p614
aS'D:/data/subset6/1.3.6.1.4.1.14519.5.2.1.6279.6001.463588161905537526756964393219.mhd'
p615
aS'D:/data/subset6/1.3.6.1.4.1.14519.5.2.1.6279.6001.465032801496479029639448332481.mhd'
p616
aS'D:/data/subset6/1.3.6.1.4.1.14519.5.2.1.6279.6001.475325201787910087416720919680.mhd'
p617
aS'D:/data/subset6/1.3.6.1.4.1.14519.5.2.1.6279.6001.513023675145166449943177283490.mhd'
p618
aS'D:/data/subset6/1.3.6.1.4.1.14519.5.2.1.6279.6001.561423049201987049884663740668.mhd'
p619
aS'D:/data/subset6/1.3.6.1.4.1.14519.5.2.1.6279.6001.569096986145782511000054443951.mhd'
p620
aS'D:/data/subset6/1.3.6.1.4.1.14519.5.2.1.6279.6001.618434772073433276874225174904.mhd'
p621
aS'D:/data/subset6/1.3.6.1.4.1.14519.5.2.1.6279.6001.652347820272212119124022644822.mhd'
p622
aS'D:/data/subset6/1.3.6.1.4.1.14519.5.2.1.6279.6001.658611160253017715059194304729.mhd'
p623
aS'D:/data/subset6/1.3.6.1.4.1.14519.5.2.1.6279.6001.669435869708883155232318480131.mhd'
p624
aS'D:/data/subset6/1.3.6.1.4.1.14519.5.2.1.6279.6001.725236073737175770730904408416.mhd'
p625
aS'D:/data/subset6/1.3.6.1.4.1.14519.5.2.1.6279.6001.803987517543436570820681016103.mhd'
p626
aS'D:/data/subset6/1.3.6.1.4.1.14519.5.2.1.6279.6001.877026508860018521147620598474.mhd'
p627
aS'D:/data/subset6/1.3.6.1.4.1.14519.5.2.1.6279.6001.948414623428298219623354433437.mhd'
p628
aS'D:/data/subset6/1.3.6.1.4.1.14519.5.2.1.6279.6001.955688628308192728558382581802.mhd'
p629
aS'D:/data/subset7/1.3.6.1.4.1.14519.5.2.1.6279.6001.105495028985881418176186711228.mhd'
p630
aS'D:/data/subset7/1.3.6.1.4.1.14519.5.2.1.6279.6001.106379658920626694402549886949.mhd'
p631
aS'D:/data/subset7/1.3.6.1.4.1.14519.5.2.1.6279.6001.111496024928645603833332252962.mhd'
p632
aS'D:/data/subset7/1.3.6.1.4.1.14519.5.2.1.6279.6001.113679818447732724990336702075.mhd'
p633
aS'D:/data/subset7/1.3.6.1.4.1.14519.5.2.1.6279.6001.114249388265341701207347458535.mhd'
p634
aS'D:/data/subset7/1.3.6.1.4.1.14519.5.2.1.6279.6001.116097642684124305074876564522.mhd'
p635
aS'D:/data/subset7/1.3.6.1.4.1.14519.5.2.1.6279.6001.116703382344406837243058680403.mhd'
p636
aS'D:/data/subset7/1.3.6.1.4.1.14519.5.2.1.6279.6001.122621219961396951727742490470.mhd'
p637
aS'D:/data/subset7/1.3.6.1.4.1.14519.5.2.1.6279.6001.125124219978170516876304987559.mhd'
p638
aS'D:/data/subset7/1.3.6.1.4.1.14519.5.2.1.6279.6001.129982010889624423230394257528.mhd'
p639
aS'D:/data/subset7/1.3.6.1.4.1.14519.5.2.1.6279.6001.130036599816889919308975074972.mhd'
p640
aS'D:/data/subset7/1.3.6.1.4.1.14519.5.2.1.6279.6001.131150737314367975651717513386.mhd'
p641
aS'D:/data/subset7/1.3.6.1.4.1.14519.5.2.1.6279.6001.139889514693390832525232698200.mhd'
p642
aS'D:/data/subset7/1.3.6.1.4.1.14519.5.2.1.6279.6001.140253591510022414496468423138.mhd'
p643
aS'D:/data/subset7/1.3.6.1.4.1.14519.5.2.1.6279.6001.141149610914910880857802344415.mhd'
p644
aS'D:/data/subset7/1.3.6.1.4.1.14519.5.2.1.6279.6001.143813757344903170810482790787.mhd'
p645
aS'D:/data/subset7/1.3.6.1.4.1.14519.5.2.1.6279.6001.151669338315069779994664893123.mhd'
p646
aS'D:/data/subset7/1.3.6.1.4.1.14519.5.2.1.6279.6001.159665703190517688573100822213.mhd'
p647
aS'D:/data/subset7/1.3.6.1.4.1.14519.5.2.1.6279.6001.163217526257871051722166468085.mhd'
p648
aS'D:/data/subset7/1.3.6.1.4.1.14519.5.2.1.6279.6001.167500254299688235071950909530.mhd'
p649
aS'D:/data/subset7/1.3.6.1.4.1.14519.5.2.1.6279.6001.170825539570536865106681134236.mhd'
p650
aS'D:/data/subset7/1.3.6.1.4.1.14519.5.2.1.6279.6001.171177995014336749670107905732.mhd'
p651
aS'D:/data/subset7/1.3.6.1.4.1.14519.5.2.1.6279.6001.174692377730646477496286081479.mhd'
p652
aS'D:/data/subset7/1.3.6.1.4.1.14519.5.2.1.6279.6001.179209990684978588019929720099.mhd'
p653
aS'D:/data/subset7/1.3.6.1.4.1.14519.5.2.1.6279.6001.185154482385982570363528682299.mhd'
p654
aS'D:/data/subset7/1.3.6.1.4.1.14519.5.2.1.6279.6001.187803155574314810830688534991.mhd'
p655
aS'D:/data/subset7/1.3.6.1.4.1.14519.5.2.1.6279.6001.195913706607582347421429908613.mhd'
p656
aS'D:/data/subset7/1.3.6.1.4.1.14519.5.2.1.6279.6001.199282854229880908602362094937.mhd'
p657
aS'D:/data/subset7/1.3.6.1.4.1.14519.5.2.1.6279.6001.214252223927572015414741039150.mhd'
p658
aS'D:/data/subset7/1.3.6.1.4.1.14519.5.2.1.6279.6001.215640837032688688030770057224.mhd'
p659
aS'D:/data/subset7/1.3.6.1.4.1.14519.5.2.1.6279.6001.219618492426142913407827034169.mhd'
p660
aS'D:/data/subset7/1.3.6.1.4.1.14519.5.2.1.6279.6001.223650122819238796121876338881.mhd'
p661
aS'D:/data/subset7/1.3.6.1.4.1.14519.5.2.1.6279.6001.226889213794065160713547677129.mhd'
p662
aS'D:/data/subset7/1.3.6.1.4.1.14519.5.2.1.6279.6001.227707494413800460340110762069.mhd'
p663
aS'D:/data/subset7/1.3.6.1.4.1.14519.5.2.1.6279.6001.228934821089041845791238006047.mhd'
p664
aS'D:/data/subset7/1.3.6.1.4.1.14519.5.2.1.6279.6001.230675342744370103160629638194.mhd'
p665
aS'D:/data/subset7/1.3.6.1.4.1.14519.5.2.1.6279.6001.233001470265230594739708503198.mhd'
p666
aS'D:/data/subset7/1.3.6.1.4.1.14519.5.2.1.6279.6001.238019241099704094018548301753.mhd'
p667
aS'D:/data/subset7/1.3.6.1.4.1.14519.5.2.1.6279.6001.242624386080831911167122628616.mhd'
p668
aS'D:/data/subset7/1.3.6.1.4.1.14519.5.2.1.6279.6001.245546033414728092794968890929.mhd'
p669
aS'D:/data/subset7/1.3.6.1.4.1.14519.5.2.1.6279.6001.246758220302211646532176593724.mhd'
p670
aS'D:/data/subset7/1.3.6.1.4.1.14519.5.2.1.6279.6001.248360766706804179966476685510.mhd'
p671
aS'D:/data/subset7/1.3.6.1.4.1.14519.5.2.1.6279.6001.248425363469507808613979846863.mhd'
p672
aS'D:/data/subset7/1.3.6.1.4.1.14519.5.2.1.6279.6001.249032660919473722154870746474.mhd'
p673
aS'D:/data/subset7/1.3.6.1.4.1.14519.5.2.1.6279.6001.249404938669582150398726875826.mhd'
p674
aS'D:/data/subset7/1.3.6.1.4.1.14519.5.2.1.6279.6001.252709517998555732486024866345.mhd'
p675
aS'D:/data/subset7/1.3.6.1.4.1.14519.5.2.1.6279.6001.256542095129414948017808425649.mhd'
p676
aS'D:/data/subset7/1.3.6.1.4.1.14519.5.2.1.6279.6001.261700367741314729940340271960.mhd'
p677
aS'D:/data/subset7/1.3.6.1.4.1.14519.5.2.1.6279.6001.264251211689085893915477907261.mhd'
p678
aS'D:/data/subset7/1.3.6.1.4.1.14519.5.2.1.6279.6001.266581250778073944645044950856.mhd'
p679
aS'D:/data/subset7/1.3.6.1.4.1.14519.5.2.1.6279.6001.270788655216695628640355888562.mhd'
p680
aS'D:/data/subset7/1.3.6.1.4.1.14519.5.2.1.6279.6001.271307051432838466826189754230.mhd'
p681
aS'D:/data/subset7/1.3.6.1.4.1.14519.5.2.1.6279.6001.272348349298439120568330857680.mhd'
p682
aS'D:/data/subset7/1.3.6.1.4.1.14519.5.2.1.6279.6001.276351267409869539593937734609.mhd'
p683
aS'D:/data/subset7/1.3.6.1.4.1.14519.5.2.1.6279.6001.279300249795483097365868125932.mhd'
p684
aS'D:/data/subset7/1.3.6.1.4.1.14519.5.2.1.6279.6001.279953669991076107785464313394.mhd'
p685
aS'D:/data/subset7/1.3.6.1.4.1.14519.5.2.1.6279.6001.280125803152924778388346920341.mhd'
p686
aS'D:/data/subset7/1.3.6.1.4.1.14519.5.2.1.6279.6001.294120933998772507043263238704.mhd'
p687
aS'D:/data/subset7/1.3.6.1.4.1.14519.5.2.1.6279.6001.295462530340364058116953738925.mhd'
p688
aS'D:/data/subset7/1.3.6.1.4.1.14519.5.2.1.6279.6001.297433269262659217151107535012.mhd'
p689
aS'D:/data/subset7/1.3.6.1.4.1.14519.5.2.1.6279.6001.303066851236267189733420290986.mhd'
p690
aS'D:/data/subset7/1.3.6.1.4.1.14519.5.2.1.6279.6001.306112617218006614029386065035.mhd'
p691
aS'D:/data/subset7/1.3.6.1.4.1.14519.5.2.1.6279.6001.307946352302138765071461362398.mhd'
p692
aS'D:/data/subset7/1.3.6.1.4.1.14519.5.2.1.6279.6001.314836406260772370397541392345.mhd'
p693
aS'D:/data/subset7/1.3.6.1.4.1.14519.5.2.1.6279.6001.315918264676377418120578391325.mhd'
p694
aS'D:/data/subset7/1.3.6.1.4.1.14519.5.2.1.6279.6001.323426705628838942177546503237.mhd'
p695
aS'D:/data/subset7/1.3.6.1.4.1.14519.5.2.1.6279.6001.323535944958374186208096541480.mhd'
p696
aS'D:/data/subset7/1.3.6.1.4.1.14519.5.2.1.6279.6001.328789598898469177563438457842.mhd'
p697
aS'D:/data/subset7/1.3.6.1.4.1.14519.5.2.1.6279.6001.332829333783605240302521201463.mhd'
p698
aS'D:/data/subset7/1.3.6.1.4.1.14519.5.2.1.6279.6001.336198008634390022174744544656.mhd'
p699
aS'D:/data/subset7/1.3.6.1.4.1.14519.5.2.1.6279.6001.339039410276356623209709113755.mhd'
p700
aS'D:/data/subset7/1.3.6.1.4.1.14519.5.2.1.6279.6001.362762275895885013176610377950.mhd'
p701
aS'D:/data/subset7/1.3.6.1.4.1.14519.5.2.1.6279.6001.447468612991222399440694673357.mhd'
p702
aS'D:/data/subset7/1.3.6.1.4.1.14519.5.2.1.6279.6001.483655032093002252444764787700.mhd'
p703
aS'D:/data/subset7/1.3.6.1.4.1.14519.5.2.1.6279.6001.550599855064600241623943717588.mhd'
p704
aS'D:/data/subset7/1.3.6.1.4.1.14519.5.2.1.6279.6001.592821488053137951302246128864.mhd'
p705
aS'D:/data/subset7/1.3.6.1.4.1.14519.5.2.1.6279.6001.613212850444255764524630781782.mhd'
p706
aS'D:/data/subset7/1.3.6.1.4.1.14519.5.2.1.6279.6001.664409965623578819357819577077.mhd'
p707
aS'D:/data/subset7/1.3.6.1.4.1.14519.5.2.1.6279.6001.664989286137882319237192185951.mhd'
p708
aS'D:/data/subset7/1.3.6.1.4.1.14519.5.2.1.6279.6001.686193079844756926365065559979.mhd'
p709
aS'D:/data/subset7/1.3.6.1.4.1.14519.5.2.1.6279.6001.749871569713868632259874663577.mhd'
p710
aS'D:/data/subset7/1.3.6.1.4.1.14519.5.2.1.6279.6001.771831598853841017505646275338.mhd'
p711
aS'D:/data/subset7/1.3.6.1.4.1.14519.5.2.1.6279.6001.837810280808122125183730411210.mhd'
p712
aS'D:/data/subset7/1.3.6.1.4.1.14519.5.2.1.6279.6001.897279226481700053115245043064.mhd'
p713
aS'D:/data/subset7/1.3.6.1.4.1.14519.5.2.1.6279.6001.900182736599353600185270496549.mhd'
p714
aS'D:/data/subset7/1.3.6.1.4.1.14519.5.2.1.6279.6001.908250781706513856628130123235.mhd'
p715
aS'D:/data/subset7/1.3.6.1.4.1.14519.5.2.1.6279.6001.944888107209008719031293531091.mhd'
p716
aS'D:/data/subset7/1.3.6.1.4.1.14519.5.2.1.6279.6001.957384617596077920906744920611.mhd'
p717
aS'D:/data/subset7/1.3.6.1.4.1.14519.5.2.1.6279.6001.994459772950022352718462251777.mhd'
p718
aS'D:/data/subset8/1.3.6.1.4.1.14519.5.2.1.6279.6001.100225287222365663678666836860.mhd'
p719
aS'D:/data/subset8/1.3.6.1.4.1.14519.5.2.1.6279.6001.108193664222196923321844991231.mhd'
p720
aS'D:/data/subset8/1.3.6.1.4.1.14519.5.2.1.6279.6001.131939324905446238286154504249.mhd'
p721
aS'D:/data/subset8/1.3.6.1.4.1.14519.5.2.1.6279.6001.137773550852881583165286615668.mhd'
p722
aS'D:/data/subset8/1.3.6.1.4.1.14519.5.2.1.6279.6001.143622857676008763729469324839.mhd'
p723
aS'D:/data/subset8/1.3.6.1.4.1.14519.5.2.1.6279.6001.149041668385192796520281592139.mhd'
p724
aS'D:/data/subset8/1.3.6.1.4.1.14519.5.2.1.6279.6001.153181766344026020914478182395.mhd'
p725
aS'D:/data/subset8/1.3.6.1.4.1.14519.5.2.1.6279.6001.153732973534937692357111055819.mhd'
p726
aS'D:/data/subset8/1.3.6.1.4.1.14519.5.2.1.6279.6001.161633200801003804714818844696.mhd'
p727
aS'D:/data/subset8/1.3.6.1.4.1.14519.5.2.1.6279.6001.161821150841552408667852639317.mhd'
p728
aS'D:/data/subset8/1.3.6.1.4.1.14519.5.2.1.6279.6001.168833925301530155818375859047.mhd'
p729
aS'D:/data/subset8/1.3.6.1.4.1.14519.5.2.1.6279.6001.172243743899615313644757844726.mhd'
p730
aS'D:/data/subset8/1.3.6.1.4.1.14519.5.2.1.6279.6001.175318131822744218104175746898.mhd'
p731
aS'D:/data/subset8/1.3.6.1.4.1.14519.5.2.1.6279.6001.177086402277715068525592995222.mhd'
p732
aS'D:/data/subset8/1.3.6.1.4.1.14519.5.2.1.6279.6001.179943248049071805421192715219.mhd'
p733
aS'D:/data/subset8/1.3.6.1.4.1.14519.5.2.1.6279.6001.183982839679953938397312236359.mhd'
p734
aS'D:/data/subset8/1.3.6.1.4.1.14519.5.2.1.6279.6001.188059920088313909273628445208.mhd'
p735
aS'D:/data/subset8/1.3.6.1.4.1.14519.5.2.1.6279.6001.194766721609772924944646251928.mhd'
p736
aS'D:/data/subset8/1.3.6.1.4.1.14519.5.2.1.6279.6001.198016798894102791158686961192.mhd'
p737
aS'D:/data/subset8/1.3.6.1.4.1.14519.5.2.1.6279.6001.200513183558872708878454294671.mhd'
p738
aS'D:/data/subset8/1.3.6.1.4.1.14519.5.2.1.6279.6001.202283133206014258077705539227.mhd'
p739
aS'D:/data/subset8/1.3.6.1.4.1.14519.5.2.1.6279.6001.203425588524695836343069893813.mhd'
p740
aS'D:/data/subset8/1.3.6.1.4.1.14519.5.2.1.6279.6001.204287915902811325371247860532.mhd'
p741
aS'D:/data/subset8/1.3.6.1.4.1.14519.5.2.1.6279.6001.204566802718283633558802774757.mhd'
p742
aS'D:/data/subset8/1.3.6.1.4.1.14519.5.2.1.6279.6001.206028343897359374907954580114.mhd'
p743
aS'D:/data/subset8/1.3.6.1.4.1.14519.5.2.1.6279.6001.206097113343059612247503064658.mhd'
p744
aS'D:/data/subset8/1.3.6.1.4.1.14519.5.2.1.6279.6001.207341668080525761926965850679.mhd'
p745
aS'D:/data/subset8/1.3.6.1.4.1.14519.5.2.1.6279.6001.213854687290736562463866711534.mhd'
p746
aS'D:/data/subset8/1.3.6.1.4.1.14519.5.2.1.6279.6001.219254430927834326484477690403.mhd'
p747
aS'D:/data/subset8/1.3.6.1.4.1.14519.5.2.1.6279.6001.225515255547637437801620523312.mhd'
p748
aS'D:/data/subset8/1.3.6.1.4.1.14519.5.2.1.6279.6001.226152078193253087875725735761.mhd'
p749
aS'D:/data/subset8/1.3.6.1.4.1.14519.5.2.1.6279.6001.236698827306171960683086245994.mhd'
p750
aS'D:/data/subset8/1.3.6.1.4.1.14519.5.2.1.6279.6001.239358021703233250639913775427.mhd'
p751
aS'D:/data/subset8/1.3.6.1.4.1.14519.5.2.1.6279.6001.241083615484551649610616348856.mhd'
p752
aS'D:/data/subset8/1.3.6.1.4.1.14519.5.2.1.6279.6001.246178337114401749164850220976.mhd'
p753
aS'D:/data/subset8/1.3.6.1.4.1.14519.5.2.1.6279.6001.247060297988514823071467295949.mhd'
p754
aS'D:/data/subset8/1.3.6.1.4.1.14519.5.2.1.6279.6001.249314567767437206995861966896.mhd'
p755
aS'D:/data/subset8/1.3.6.1.4.1.14519.5.2.1.6279.6001.253317247142837717905329340520.mhd'
p756
aS'D:/data/subset8/1.3.6.1.4.1.14519.5.2.1.6279.6001.254957696184671649675053562027.mhd'
p757
aS'D:/data/subset8/1.3.6.1.4.1.14519.5.2.1.6279.6001.257383535269991165447822992959.mhd'
p758
aS'D:/data/subset8/1.3.6.1.4.1.14519.5.2.1.6279.6001.257515388956260258681136624817.mhd'
p759
aS'D:/data/subset8/1.3.6.1.4.1.14519.5.2.1.6279.6001.259124675432205040899951626253.mhd'
p760
aS'D:/data/subset8/1.3.6.1.4.1.14519.5.2.1.6279.6001.262873069163227096134627700599.mhd'
p761
aS'D:/data/subset8/1.3.6.1.4.1.14519.5.2.1.6279.6001.271220641987745483198036913951.mhd'
p762
aS'D:/data/subset8/1.3.6.1.4.1.14519.5.2.1.6279.6001.272123398257168239653655006815.mhd'
p763
aS'D:/data/subset8/1.3.6.1.4.1.14519.5.2.1.6279.6001.283878926524838648426928238498.mhd'
p764
aS'D:/data/subset8/1.3.6.1.4.1.14519.5.2.1.6279.6001.286422846896797433168187085942.mhd'
p765
aS'D:/data/subset8/1.3.6.1.4.1.14519.5.2.1.6279.6001.286627485198831346082954437212.mhd'
p766
aS'D:/data/subset8/1.3.6.1.4.1.14519.5.2.1.6279.6001.288701997968615460794642979503.mhd'
p767
aS'D:/data/subset8/1.3.6.1.4.1.14519.5.2.1.6279.6001.292049618819567427252971059233.mhd'
p768
aS'D:/data/subset8/1.3.6.1.4.1.14519.5.2.1.6279.6001.296066944953051278419805374238.mhd'
p769
aS'D:/data/subset8/1.3.6.1.4.1.14519.5.2.1.6279.6001.297964221542942838344351735414.mhd'
p770
aS'D:/data/subset8/1.3.6.1.4.1.14519.5.2.1.6279.6001.297988578825170426663869669862.mhd'
p771
aS'D:/data/subset8/1.3.6.1.4.1.14519.5.2.1.6279.6001.299806338046301317870803017534.mhd'
p772
aS'D:/data/subset8/1.3.6.1.4.1.14519.5.2.1.6279.6001.300136985030081433029390459071.mhd'
p773
aS'D:/data/subset8/1.3.6.1.4.1.14519.5.2.1.6279.6001.301462380687644451483231621986.mhd'
p774
aS'D:/data/subset8/1.3.6.1.4.1.14519.5.2.1.6279.6001.302403227435841351528721627052.mhd'
p775
aS'D:/data/subset8/1.3.6.1.4.1.14519.5.2.1.6279.6001.305887072264491016857673607285.mhd'
p776
aS'D:/data/subset8/1.3.6.1.4.1.14519.5.2.1.6279.6001.306520140119968755187868602181.mhd'
p777
aS'D:/data/subset8/1.3.6.1.4.1.14519.5.2.1.6279.6001.317613170669207528926259976488.mhd'
p778
aS'D:/data/subset8/1.3.6.1.4.1.14519.5.2.1.6279.6001.324649110927013926557500550446.mhd'
p779
aS'D:/data/subset8/1.3.6.1.4.1.14519.5.2.1.6279.6001.336102335330125765000317290445.mhd'
p780
aS'D:/data/subset8/1.3.6.1.4.1.14519.5.2.1.6279.6001.339484970190920330170416228517.mhd'
p781
aS'D:/data/subset8/1.3.6.1.4.1.14519.5.2.1.6279.6001.346115813056769250958550383763.mhd'
p782
aS'D:/data/subset8/1.3.6.1.4.1.14519.5.2.1.6279.6001.373433682859788429397781158572.mhd'
p783
aS'D:/data/subset8/1.3.6.1.4.1.14519.5.2.1.6279.6001.397522780537301776672854630421.mhd'
p784
aS'D:/data/subset8/1.3.6.1.4.1.14519.5.2.1.6279.6001.454273545863197752384437758130.mhd'
p785
aS'D:/data/subset8/1.3.6.1.4.1.14519.5.2.1.6279.6001.478062284228419671253422844986.mhd'
p786
aS'D:/data/subset8/1.3.6.1.4.1.14519.5.2.1.6279.6001.486999111981013268988489262668.mhd'
p787
aS'D:/data/subset8/1.3.6.1.4.1.14519.5.2.1.6279.6001.487268565754493433372433148666.mhd'
p788
aS'D:/data/subset8/1.3.6.1.4.1.14519.5.2.1.6279.6001.518487185634324801733841260431.mhd'
p789
aS'D:/data/subset8/1.3.6.1.4.1.14519.5.2.1.6279.6001.608029415915051219877530734559.mhd'
p790
aS'D:/data/subset8/1.3.6.1.4.1.14519.5.2.1.6279.6001.622243923620914676263059698181.mhd'
p791
aS'D:/data/subset8/1.3.6.1.4.1.14519.5.2.1.6279.6001.671278273674156798801285503514.mhd'
p792
aS'D:/data/subset8/1.3.6.1.4.1.14519.5.2.1.6279.6001.675543413149938600000570588203.mhd'
p793
aS'D:/data/subset8/1.3.6.1.4.1.14519.5.2.1.6279.6001.701514276942509393419164159551.mhd'
p794
aS'D:/data/subset8/1.3.6.1.4.1.14519.5.2.1.6279.6001.724562063158320418413995627171.mhd'
p795
aS'D:/data/subset8/1.3.6.1.4.1.14519.5.2.1.6279.6001.766881513533845439335142582269.mhd'
p796
aS'D:/data/subset8/1.3.6.1.4.1.14519.5.2.1.6279.6001.774060103415303828812229821954.mhd'
p797
aS'D:/data/subset8/1.3.6.1.4.1.14519.5.2.1.6279.6001.776800177074349870648765614630.mhd'
p798
aS'D:/data/subset8/1.3.6.1.4.1.14519.5.2.1.6279.6001.792381786708289670758399079830.mhd'
p799
aS'D:/data/subset8/1.3.6.1.4.1.14519.5.2.1.6279.6001.814122498113547115932318256859.mhd'
p800
aS'D:/data/subset8/1.3.6.1.4.1.14519.5.2.1.6279.6001.882070241245008756731854510592.mhd'
p801
aS'D:/data/subset8/1.3.6.1.4.1.14519.5.2.1.6279.6001.888615810685807330497715730842.mhd'
p802
aS'D:/data/subset8/1.3.6.1.4.1.14519.5.2.1.6279.6001.897161587681142256575045076919.mhd'
p803
aS'D:/data/subset8/1.3.6.1.4.1.14519.5.2.1.6279.6001.931383239747372227838946053237.mhd'
p804
aS'D:/data/subset8/1.3.6.1.4.1.14519.5.2.1.6279.6001.939216568327879462530496768794.mhd'
p805
aS'D:/data/subset8/1.3.6.1.4.1.14519.5.2.1.6279.6001.997611074084993415992563148335.mhd'
p806
asS'mean'
p807
cnumpy.core.multiarray
scalar
p808
(cnumpy
dtype
p809
(S'f8'
p810
I0
I1
tp811
Rp812
(I3
S'<'
p813
NNNI-1
I-1
I0
tp814
bS'\x95\x1fu\x04t:\x90\xc0'
p815
tp816
Rp817
s.