(dp0
S'std'
p1
F821.3123510359779
sS'n_samples'
p2
I88
sS'version'
p3
I1
sS'file_names'
p4
cnumpy.core.multiarray
_reconstruct
p5
(cnumpy.core.defchararray
chararray
p6
(I0
tp7
S'b'
p8
tp9
Rp10
(I1
(L88L
tp11
cnumpy
dtype
p12
(S'S84'
p13
I0
I1
tp14
Rp15
(I3
S'|'
p16
NNNI84
I1
I0
tp17
bI00
S'D:/data/subset9/1.3.6.1.4.1.14519.5.2.1.6279.6001.102681962408431413578140925249.mhdD:/data/subset9/1.3.6.1.4.1.14519.5.2.1.6279.6001.109882169963817627559804568094.mhdD:/data/subset9/1.3.6.1.4.1.14519.5.2.1.6279.6001.112767175295249119452142211437.mhdD:/data/subset9/1.3.6.1.4.1.14519.5.2.1.6279.6001.114914167428485563471327801935.mhdD:/data/subset9/1.3.6.1.4.1.14519.5.2.1.6279.6001.121108220866971173712229588402.mhdD:/data/subset9/1.3.6.1.4.1.14519.5.2.1.6279.6001.121805476976020513950614465787.mhdD:/data/subset9/1.3.6.1.4.1.14519.5.2.1.6279.6001.124656777236468248920498636247.mhdD:/data/subset9/1.3.6.1.4.1.14519.5.2.1.6279.6001.124822907934319930841506266464.mhdD:/data/subset9/1.3.6.1.4.1.14519.5.2.1.6279.6001.129650136453746261130135157590.mhdD:/data/subset9/1.3.6.1.4.1.14519.5.2.1.6279.6001.134519406153127654901640638633.mhdD:/data/subset9/1.3.6.1.4.1.14519.5.2.1.6279.6001.138674679709964033277400089532.mhdD:/data/subset9/1.3.6.1.4.1.14519.5.2.1.6279.6001.138813197521718693188313387015.mhdD:/data/subset9/1.3.6.1.4.1.14519.5.2.1.6279.6001.139577698050713461261415990027.mhdD:/data/subset9/1.3.6.1.4.1.14519.5.2.1.6279.6001.141345499716190654505508410197.mhdD:/data/subset9/1.3.6.1.4.1.14519.5.2.1.6279.6001.145510611155363050427743946446.mhdD:/data/subset9/1.3.6.1.4.1.14519.5.2.1.6279.6001.148935306123327835217659769212.mhdD:/data/subset9/1.3.6.1.4.1.14519.5.2.1.6279.6001.150097650621090951325113116280.mhdD:/data/subset9/1.3.6.1.4.1.14519.5.2.1.6279.6001.153985109349433321657655488650.mhdD:/data/subset9/1.3.6.1.4.1.14519.5.2.1.6279.6001.167661207884826429102690781600.mhdD:/data/subset9/1.3.6.1.4.1.14519.5.2.1.6279.6001.170706757615202213033480003264.mhdD:/data/subset9/1.3.6.1.4.1.14519.5.2.1.6279.6001.173931884906244951746140865701.mhdD:/data/subset9/1.3.6.1.4.1.14519.5.2.1.6279.6001.174449669706458092793093760291.mhdD:/data/subset9/1.3.6.1.4.1.14519.5.2.1.6279.6001.176869045992276345870480098568.mhdD:/data/subset9/1.3.6.1.4.1.14519.5.2.1.6279.6001.179683407589764683292800449011.mhdD:/data/subset9/1.3.6.1.4.1.14519.5.2.1.6279.6001.182192086929819295877506541021.mhdD:/data/subset9/1.3.6.1.4.1.14519.5.2.1.6279.6001.187694838527128312070807533473.mhdD:/data/subset9/1.3.6.1.4.1.14519.5.2.1.6279.6001.188385286346390202873004762827.mhdD:/data/subset9/1.3.6.1.4.1.14519.5.2.1.6279.6001.188619674701053082195613114069.mhdD:/data/subset9/1.3.6.1.4.1.14519.5.2.1.6279.6001.193721075067404532739943086458.mhdD:/data/subset9/1.3.6.1.4.1.14519.5.2.1.6279.6001.193964947698259739624715468431.mhdD:/data/subset9/1.3.6.1.4.1.14519.5.2.1.6279.6001.194632613233275988184244485809.mhdD:/data/subset9/1.3.6.1.4.1.14519.5.2.1.6279.6001.195557219224169985110295082004.mhdD:/data/subset9/1.3.6.1.4.1.14519.5.2.1.6279.6001.196251645377731223510086726530.mhdD:/data/subset9/1.3.6.1.4.1.14519.5.2.1.6279.6001.199261544234308780356714831537.mhdD:/data/subset9/1.3.6.1.4.1.14519.5.2.1.6279.6001.212608679077007918190529579976.mhdD:/data/subset9/1.3.6.1.4.1.14519.5.2.1.6279.6001.215104063467523905369326175410.mhdD:/data/subset9/1.3.6.1.4.1.14519.5.2.1.6279.6001.215785045378334625097907422785.mhdD:/data/subset9/1.3.6.1.4.1.14519.5.2.1.6279.6001.217754016294471278921686508169.mhdD:/data/subset9/1.3.6.1.4.1.14519.5.2.1.6279.6001.220596530836092324070084384692.mhdD:/data/subset9/1.3.6.1.4.1.14519.5.2.1.6279.6001.222052723822248889877676736332.mhdD:/data/subset9/1.3.6.1.4.1.14519.5.2.1.6279.6001.227968442353440630355230778531.mhdD:/data/subset9/1.3.6.1.4.1.14519.5.2.1.6279.6001.229096941293122177107846044795.mhdD:/data/subset9/1.3.6.1.4.1.14519.5.2.1.6279.6001.229860476925100292554329427970.mhdD:/data/subset9/1.3.6.1.4.1.14519.5.2.1.6279.6001.229960820686439513664996214638.mhdD:/data/subset9/1.3.6.1.4.1.14519.5.2.1.6279.6001.230491296081537726468075344411.mhdD:/data/subset9/1.3.6.1.4.1.14519.5.2.1.6279.6001.237215747217294006286437405216.mhdD:/data/subset9/1.3.6.1.4.1.14519.5.2.1.6279.6001.237915456403882324748189195892.mhdD:/data/subset9/1.3.6.1.4.1.14519.5.2.1.6279.6001.250481236093201801255751845296.mhdD:/data/subset9/1.3.6.1.4.1.14519.5.2.1.6279.6001.254929810944557499537650429296.mhdD:/data/subset9/1.3.6.1.4.1.14519.5.2.1.6279.6001.259453428008507791234730686014.mhdD:/data/subset9/1.3.6.1.4.1.14519.5.2.1.6279.6001.265570697208310960298668720669.mhdD:/data/subset9/1.3.6.1.4.1.14519.5.2.1.6279.6001.265780642925621389994857727416.mhdD:/data/subset9/1.3.6.1.4.1.14519.5.2.1.6279.6001.268030488196493755113553009785.mhdD:/data/subset9/1.3.6.1.4.1.14519.5.2.1.6279.6001.272344603176687884771013620823.mhdD:/data/subset9/1.3.6.1.4.1.14519.5.2.1.6279.6001.286061375572911414226912429210.mhdD:/data/subset9/1.3.6.1.4.1.14519.5.2.1.6279.6001.291156498203266896953765649282.mhdD:/data/subset9/1.3.6.1.4.1.14519.5.2.1.6279.6001.292576688635952269497781991202.mhdD:/data/subset9/1.3.6.1.4.1.14519.5.2.1.6279.6001.292994770358625142596171316474.mhdD:/data/subset9/1.3.6.1.4.1.14519.5.2.1.6279.6001.300270516469599170290456821227.mhdD:/data/subset9/1.3.6.1.4.1.14519.5.2.1.6279.6001.300392272203629213913702120739.mhdD:/data/subset9/1.3.6.1.4.1.14519.5.2.1.6279.6001.300693623747082239407271583452.mhdD:/data/subset9/1.3.6.1.4.1.14519.5.2.1.6279.6001.306140003699110313373771452136.mhdD:/data/subset9/1.3.6.1.4.1.14519.5.2.1.6279.6001.309901913847714156367981722205.mhdD:/data/subset9/1.3.6.1.4.1.14519.5.2.1.6279.6001.311476128731958142981941696518.mhdD:/data/subset9/1.3.6.1.4.1.14519.5.2.1.6279.6001.312127933722985204808706697221.mhdD:/data/subset9/1.3.6.1.4.1.14519.5.2.1.6279.6001.328944769569002417592093467626.mhdD:/data/subset9/1.3.6.1.4.1.14519.5.2.1.6279.6001.330043769832606379655473292782.mhdD:/data/subset9/1.3.6.1.4.1.14519.5.2.1.6279.6001.330643702676971528301859647742.mhdD:/data/subset9/1.3.6.1.4.1.14519.5.2.1.6279.6001.334166493392278943610545989413.mhdD:/data/subset9/1.3.6.1.4.1.14519.5.2.1.6279.6001.337005960787660957389988207064.mhdD:/data/subset9/1.3.6.1.4.1.14519.5.2.1.6279.6001.340012777775661021262977442176.mhdD:/data/subset9/1.3.6.1.4.1.14519.5.2.1.6279.6001.340158437895922179455019686521.mhdD:/data/subset9/1.3.6.1.4.1.14519.5.2.1.6279.6001.387954549120924524005910602207.mhdD:/data/subset9/1.3.6.1.4.1.14519.5.2.1.6279.6001.392861216720727557882279374324.mhdD:/data/subset9/1.3.6.1.4.1.14519.5.2.1.6279.6001.436403998650924660479049012235.mhdD:/data/subset9/1.3.6.1.4.1.14519.5.2.1.6279.6001.440226700369921575481834344455.mhdD:/data/subset9/1.3.6.1.4.1.14519.5.2.1.6279.6001.472487466001405705666001578363.mhdD:/data/subset9/1.3.6.1.4.1.14519.5.2.1.6279.6001.558286136379689377915919180358.mhdD:/data/subset9/1.3.6.1.4.1.14519.5.2.1.6279.6001.603126300703296693942875967838.mhdD:/data/subset9/1.3.6.1.4.1.14519.5.2.1.6279.6001.712472578497712558367294720243.mhdD:/data/subset9/1.3.6.1.4.1.14519.5.2.1.6279.6001.733642690503782454656013446707.mhdD:/data/subset9/1.3.6.1.4.1.14519.5.2.1.6279.6001.747803439040091794717626507402.mhdD:/data/subset9/1.3.6.1.4.1.14519.5.2.1.6279.6001.765459236550358748053283544075.mhdD:/data/subset9/1.3.6.1.4.1.14519.5.2.1.6279.6001.765930210026773090100532964804.mhdD:/data/subset9/1.3.6.1.4.1.14519.5.2.1.6279.6001.771741891125176943862272696845.mhdD:/data/subset9/1.3.6.1.4.1.14519.5.2.1.6279.6001.855232435861303786204450738044.mhdD:/data/subset9/1.3.6.1.4.1.14519.5.2.1.6279.6001.927394449308471452920270961822.mhdD:/data/subset9/1.3.6.1.4.1.14519.5.2.1.6279.6001.946129570505893110165820050204.mhd'
p18
tp19
bsS'mean'
p20
cnumpy.core.multiarray
scalar
p21
(g12
(S'f8'
p22
I0
I1
tp23
Rp24
(I3
S'<'
p25
NNNI-1
I-1
I0
tp26
bS'Mm\x87\xd7\xe4\xeb\x8c\xc0'
p27
tp28
Rp29
s.